
boot_rom.elf:     file format elf32-littlearm


Disassembly of section .text:

0c000000 <_start>:
 c000000:	e10f0000 	mrs	r0, CPSR
 c000004:	e3c0001f 	bic	r0, r0, #31
 c000008:	e38010d3 	orr	r1, r0, #211	; 0xd3
 c00000c:	e12ff001 	msr	CPSR_fsxc, r1
 c000010:	e59fd258 	ldr	sp, [pc, #600]	; c000270 <loopnommu1+0x40>
 c000014:	e3a00000 	mov	r0, #0
 c000018:	ee070f17 	mcr	15, 0, r0, cr7, cr7, {0}
 c00001c:	ee110f10 	mrc	15, 0, r0, cr1, cr0, {0}
 c000020:	e3800a01 	orr	r0, r0, #4096	; 0x1000
 c000024:	ee010f10 	mcr	15, 0, r0, cr1, cr0, {0}
 c000028:	e59f0244 	ldr	r0, [pc, #580]	; c000274 <loopnommu1+0x44>
 c00002c:	ee0f0f92 	mcr	15, 0, r0, cr15, cr2, {4}
 c000030:	e59f0240 	ldr	r0, [pc, #576]	; c000278 <loopnommu1+0x48>
 c000034:	e3e01000 	mvn	r1, #0
 c000038:	e5801000 	str	r1, [r0]
 c00003c:	e59f0234 	ldr	r0, [pc, #564]	; c000278 <loopnommu1+0x48>
 c000040:	e3e01000 	mvn	r1, #0
 c000044:	e5801000 	str	r1, [r0]
 c000048:	e59f022c 	ldr	r0, [pc, #556]	; c00027c <loopnommu1+0x4c>
 c00004c:	e3a01000 	mov	r1, #0
 c000050:	e5801000 	str	r1, [r0]
 c000054:	e59f0224 	ldr	r0, [pc, #548]	; c000280 <loopnommu1+0x50>
 c000058:	e5901000 	ldr	r1, [r0]
 c00005c:	e3811040 	orr	r1, r1, #64	; 0x40
 c000060:	e5801000 	str	r1, [r0]
 c000064:	e320f000 	nop	{0}
 c000068:	e320f000 	nop	{0}
 c00006c:	e320f000 	nop	{0}
 c000070:	e320f000 	nop	{0}
 c000074:	e320f000 	nop	{0}
 c000078:	e5901000 	ldr	r1, [r0]
 c00007c:	e3811080 	orr	r1, r1, #128	; 0x80
 c000080:	e5801000 	str	r1, [r0]

0c000084 <WaitForSync>:
 c000084:	e5901000 	ldr	r1, [r0]
 c000088:	e2011c0f 	and	r1, r1, #3840	; 0xf00
 c00008c:	e3510c0f 	cmp	r1, #3840	; 0xf00
 c000090:	1afffffb 	bne	c000084 <WaitForSync>
 c000094:	e59f31e8 	ldr	r3, [pc, #488]	; c000284 <loopnommu1+0x54>
 c000098:	e59f41e8 	ldr	r4, [pc, #488]	; c000288 <loopnommu1+0x58>
 c00009c:	e59f51e8 	ldr	r5, [pc, #488]	; c00028c <loopnommu1+0x5c>
 c0000a0:	e59f61e8 	ldr	r6, [pc, #488]	; c000290 <loopnommu1+0x60>
 c0000a4:	e59f01e8 	ldr	r0, [pc, #488]	; c000294 <loopnommu1+0x64>
 c0000a8:	e5901000 	ldr	r1, [r0]
 c0000ac:	e0011003 	and	r1, r1, r3
 c0000b0:	e59f21e0 	ldr	r2, [pc, #480]	; c000298 <loopnommu1+0x68>
 c0000b4:	e1510002 	cmp	r1, r2
 c0000b8:	1a000018 	bne	c000120 <PLL_NeedToConfigure>
 c0000bc:	e59f01d8 	ldr	r0, [pc, #472]	; c00029c <loopnommu1+0x6c>
 c0000c0:	e5901000 	ldr	r1, [r0]
 c0000c4:	e0011003 	and	r1, r1, r3
 c0000c8:	e59f21d0 	ldr	r2, [pc, #464]	; c0002a0 <loopnommu1+0x70>
 c0000cc:	e1510002 	cmp	r1, r2
 c0000d0:	1a000012 	bne	c000120 <PLL_NeedToConfigure>
 c0000d4:	e59f01c8 	ldr	r0, [pc, #456]	; c0002a4 <loopnommu1+0x74>
 c0000d8:	e5901000 	ldr	r1, [r0]
 c0000dc:	e0011004 	and	r1, r1, r4
 c0000e0:	e59f21c0 	ldr	r2, [pc, #448]	; c0002a8 <loopnommu1+0x78>
 c0000e4:	e1510002 	cmp	r1, r2
 c0000e8:	1a00000c 	bne	c000120 <PLL_NeedToConfigure>
 c0000ec:	e59f01b8 	ldr	r0, [pc, #440]	; c0002ac <loopnommu1+0x7c>
 c0000f0:	e5901000 	ldr	r1, [r0]
 c0000f4:	e0011005 	and	r1, r1, r5
 c0000f8:	e3a02000 	mov	r2, #0
 c0000fc:	e1510002 	cmp	r1, r2
 c000100:	1a000006 	bne	c000120 <PLL_NeedToConfigure>
 c000104:	e59f01a4 	ldr	r0, [pc, #420]	; c0002b0 <loopnommu1+0x80>
 c000108:	e5901000 	ldr	r1, [r0]
 c00010c:	e0011006 	and	r1, r1, r6
 c000110:	e59f219c 	ldr	r2, [pc, #412]	; c0002b4 <loopnommu1+0x84>
 c000114:	e1510002 	cmp	r1, r2
 c000118:	1a00001d 	bne	c000194 <CLKDIV_NeedToConfigure>
 c00011c:	ea000028 	b	c0001c4 <PLL_CLKDIV_AlreadyConfigured>

0c000120 <PLL_NeedToConfigure>:
 c000120:	e59f0190 	ldr	r0, [pc, #400]	; c0002b8 <loopnommu1+0x88>
 c000124:	e5901000 	ldr	r1, [r0]
 c000128:	e3c11007 	bic	r1, r1, #7
 c00012c:	e5801000 	str	r1, [r0]
 c000130:	e59f0178 	ldr	r0, [pc, #376]	; c0002b0 <loopnommu1+0x80>
 c000134:	e5901000 	ldr	r1, [r0]
 c000138:	e3c11cff 	bic	r1, r1, #65280	; 0xff00
 c00013c:	e3c110ff 	bic	r1, r1, #255	; 0xff
 c000140:	e59f216c 	ldr	r2, [pc, #364]	; c0002b4 <loopnommu1+0x84>
 c000144:	e1811002 	orr	r1, r1, r2
 c000148:	e5801000 	str	r1, [r0]
 c00014c:	e59f1168 	ldr	r1, [pc, #360]	; c0002bc <loopnommu1+0x8c>
 c000150:	e59f2168 	ldr	r2, [pc, #360]	; c0002c0 <loopnommu1+0x90>
 c000154:	e59f0168 	ldr	r0, [pc, #360]	; c0002c4 <loopnommu1+0x94>
 c000158:	e5801000 	str	r1, [r0]
 c00015c:	e5801004 	str	r1, [r0, #4]
 c000160:	e5802008 	str	r2, [r0, #8]
 c000164:	e59f0128 	ldr	r0, [pc, #296]	; c000294 <loopnommu1+0x64>
 c000168:	e59f1128 	ldr	r1, [pc, #296]	; c000298 <loopnommu1+0x68>
 c00016c:	e5801000 	str	r1, [r0]
 c000170:	e59f0124 	ldr	r0, [pc, #292]	; c00029c <loopnommu1+0x6c>
 c000174:	e59f1124 	ldr	r1, [pc, #292]	; c0002a0 <loopnommu1+0x70>
 c000178:	e5801000 	str	r1, [r0]
 c00017c:	e59f0128 	ldr	r0, [pc, #296]	; c0002ac <loopnommu1+0x7c>
 c000180:	e3a01000 	mov	r1, #0
 c000184:	e5801000 	str	r1, [r0]
 c000188:	e59f0114 	ldr	r0, [pc, #276]	; c0002a4 <loopnommu1+0x74>
 c00018c:	e59f1114 	ldr	r1, [pc, #276]	; c0002a8 <loopnommu1+0x78>
 c000190:	e5801000 	str	r1, [r0]

0c000194 <CLKDIV_NeedToConfigure>:
 c000194:	e59f0114 	ldr	r0, [pc, #276]	; c0002b0 <loopnommu1+0x80>
 c000198:	e5901000 	ldr	r1, [r0]
 c00019c:	e3c11803 	bic	r1, r1, #196608	; 0x30000
 c0001a0:	e3c11cff 	bic	r1, r1, #65280	; 0xff00
 c0001a4:	e3c110ff 	bic	r1, r1, #255	; 0xff
 c0001a8:	e59f2104 	ldr	r2, [pc, #260]	; c0002b4 <loopnommu1+0x84>
 c0001ac:	e1811002 	orr	r1, r1, r2
 c0001b0:	e5801000 	str	r1, [r0]
 c0001b4:	e59f00fc 	ldr	r0, [pc, #252]	; c0002b8 <loopnommu1+0x88>
 c0001b8:	e5901000 	ldr	r1, [r0]
 c0001bc:	e3811007 	orr	r1, r1, #7
 c0001c0:	e5801000 	str	r1, [r0]

0c0001c4 <PLL_CLKDIV_AlreadyConfigured>:
 c0001c4:	eb00004c 	bl	c0002fc <dram_init>
 c0001c8:	eb0000ca 	bl	c0004f8 <nand_init>
 c0001cc:	e59f00f4 	ldr	r0, [pc, #244]	; c0002c8 <loopnommu1+0x98>
 c0001d0:	e5901000 	ldr	r1, [r0]
 c0001d4:	e3811a01 	orr	r1, r1, #4096	; 0x1000
 c0001d8:	e3c110bf 	bic	r1, r1, #191	; 0xbf
 c0001dc:	e5801000 	str	r1, [r0]
 c0001e0:	ee110f10 	mrc	15, 0, r0, cr1, cr0, {0}
 c0001e4:	e3c00401 	bic	r0, r0, #16777216	; 0x1000000
 c0001e8:	ee010f10 	mcr	15, 0, r0, cr1, cr0, {0}
 c0001ec:	e3a00205 	mov	r0, #1342177280	; 0x50000000
 c0001f0:	e3a01000 	mov	r1, #0
 c0001f4:	e59f30d0 	ldr	r3, [pc, #208]	; c0002cc <loopnommu1+0x9c>

0c0001f8 <loopnommu>:
 c0001f8:	e1a02a01 	lsl	r2, r1, #20
 c0001fc:	e0822003 	add	r2, r2, r3
 c000200:	e4802004 	str	r2, [r0], #4
 c000204:	e2811001 	add	r1, r1, #1
 c000208:	e3510c05 	cmp	r1, #1280	; 0x500
 c00020c:	1afffff9 	bne	c0001f8 <loopnommu>
 c000210:	e59f30b8 	ldr	r3, [pc, #184]	; c0002d0 <loopnommu1+0xa0>

0c000214 <loopmmu>:
 c000214:	e1a02a01 	lsl	r2, r1, #20
 c000218:	e0822003 	add	r2, r2, r3
 c00021c:	e4802004 	str	r2, [r0], #4
 c000220:	e2811001 	add	r1, r1, #1
 c000224:	e3510d16 	cmp	r1, #1408	; 0x580
 c000228:	1afffff9 	bne	c000214 <loopmmu>
 c00022c:	e59f3098 	ldr	r3, [pc, #152]	; c0002cc <loopnommu1+0x9c>

0c000230 <loopnommu1>:
 c000230:	e1a02a01 	lsl	r2, r1, #20
 c000234:	e0822003 	add	r2, r2, r3
 c000238:	e4802004 	str	r2, [r0], #4
 c00023c:	e2811001 	add	r1, r1, #1
 c000240:	e3510a01 	cmp	r1, #4096	; 0x1000
 c000244:	1afffff9 	bne	c000230 <loopnommu1>
 c000248:	e3a00205 	mov	r0, #1342177280	; 0x50000000
 c00024c:	ee020f10 	mcr	15, 0, r0, cr2, cr0, {0}
 c000250:	e3e00000 	mvn	r0, #0
 c000254:	ee030f10 	mcr	15, 0, r0, cr3, cr0, {0}
 c000258:	e59f0074 	ldr	r0, [pc, #116]	; c0002d4 <loopnommu1+0xa4>
 c00025c:	e59f1074 	ldr	r1, [pc, #116]	; c0002d8 <loopnommu1+0xa8>
 c000260:	e5801000 	str	r1, [r0]
 c000264:	eb00020c 	bl	c000a9c <main>
 c000268:	e3a00201 	mov	r0, #268435456	; 0x10000000
 c00026c:	e1a0f000 	mov	pc, r0
 c000270:	0c002000 	stceq	0, cr2, [r0], {-0}
 c000274:	70000013 	andvc	r0, r0, r3, lsl r0
 c000278:	71200014 	teqvc	r0, r4, lsl r0
 c00027c:	7e004000 	cdpvc	0, 0, cr4, cr0, cr0, {0}
 c000280:	7e00f900 	cdpvc	9, 0, cr15, cr0, cr0, {0}
 c000284:	83ff3f07 	mvnshi	r3, #7, 30
 c000288:	80ff3f07 	rscshi	r3, pc, r7, lsl #30
 c00028c:	0000ffff 	strdeq	pc, [r0], -pc	; <UNPREDICTABLE>
 c000290:	0003ff17 	andeq	pc, r3, r7, lsl pc	; <UNPREDICTABLE>
 c000294:	7e00f00c 	cdpvc	0, 0, cr15, cr0, cr12, {0}
 c000298:	810a0301 	tsthi	sl, r1, lsl #6
 c00029c:	7e00f010 	mcrvc	0, 0, pc, cr0, cr0, {0}	; <UNPREDICTABLE>
 c0002a0:	810a0302 	tsthi	sl, r2, lsl #6
 c0002a4:	7e00f014 	mcrvc	0, 0, pc, cr0, cr4, {0}	; <UNPREDICTABLE>
 c0002a8:	80fe0902 	rscshi	r0, lr, r2, lsl #18
 c0002ac:	7e00f018 	mcrvc	0, 0, pc, cr0, cr8, {0}	; <UNPREDICTABLE>
 c0002b0:	7e00f020 	cdpvc	0, 0, cr15, cr0, cr0, {1}
 c0002b4:	00003310 	andeq	r3, r0, r0, lsl r3
 c0002b8:	7e00f01c 	mcrvc	0, 0, pc, cr0, cr12, {0}	; <UNPREDICTABLE>
 c0002bc:	000004b1 			; <UNDEFINED> instruction: 0x000004b1
 c0002c0:	00000e13 	andeq	r0, r0, r3, lsl lr
 c0002c4:	7e00f000 	cdpvc	0, 0, cr15, cr0, cr0, {0}
 c0002c8:	7e00f120 	mvfvcsp	f7, f0
 c0002cc:	00000c12 	andeq	r0, r0, r2, lsl ip
 c0002d0:	00000c1e 	andeq	r0, r0, lr, lsl ip
 c0002d4:	7f008820 	svcvc	0x00008820
 c0002d8:	00001111 	andeq	r1, r0, r1, lsl r1

0c0002dc <srom_cs0_init>:
 c0002dc:	e3a03207 	mov	r3, #1879048192	; 0x70000000
 c0002e0:	e5932000 	ldr	r2, [r3]
 c0002e4:	e3c2200f 	bic	r2, r2, #15
 c0002e8:	e3822001 	orr	r2, r2, #1
 c0002ec:	e5832000 	str	r2, [r3]
 c0002f0:	e3a0280f 	mov	r2, #983040	; 0xf0000
 c0002f4:	e5832004 	str	r2, [r3, #4]
 c0002f8:	e12fff1e 	bx	lr

0c0002fc <dram_init>:
 c0002fc:	e92d00f0 	push	{r4, r5, r6, r7}
 c000300:	e59f30c4 	ldr	r3, [pc, #196]	; c0003cc <dram_init+0xd0>
 c000304:	e59f70c4 	ldr	r7, [pc, #196]	; c0003d0 <dram_init+0xd4>
 c000308:	e3a02004 	mov	r2, #4
 c00030c:	e5832004 	str	r2, [r3, #4]
 c000310:	e3a01002 	mov	r1, #2
 c000314:	e5837010 	str	r7, [r3, #16]
 c000318:	e3a06006 	mov	r6, #6
 c00031c:	e3a07001 	mov	r7, #1
 c000320:	e5836014 	str	r6, [r3, #20]
 c000324:	e5837018 	str	r7, [r3, #24]
 c000328:	e583101c 	str	r1, [r3, #28]
 c00032c:	e5836020 	str	r6, [r3, #32]
 c000330:	e3a0600a 	mov	r6, #10
 c000334:	e5836024 	str	r6, [r3, #36]	; 0x24
 c000338:	e3a0500c 	mov	r5, #12
 c00033c:	e3a0604b 	mov	r6, #75	; 0x4b
 c000340:	e5835028 	str	r5, [r3, #40]	; 0x28
 c000344:	e583602c 	str	r6, [r3, #44]	; 0x2c
 c000348:	e5835030 	str	r5, [r3, #48]	; 0x30
 c00034c:	e5831034 	str	r1, [r3, #52]	; 0x34
 c000350:	e5831038 	str	r1, [r3, #56]	; 0x38
 c000354:	e583103c 	str	r1, [r3, #60]	; 0x3c
 c000358:	e5831040 	str	r1, [r3, #64]	; 0x40
 c00035c:	e59f1070 	ldr	r1, [pc, #112]	; c0003d4 <dram_init+0xd8>
 c000360:	e3a04010 	mov	r4, #16
 c000364:	e5834044 	str	r4, [r3, #68]	; 0x44
 c000368:	e5834048 	str	r4, [r3, #72]	; 0x48
 c00036c:	e583100c 	str	r1, [r3, #12]
 c000370:	e59f1060 	ldr	r1, [pc, #96]	; c0003d8 <dram_init+0xdc>
 c000374:	e3a00000 	mov	r0, #0
 c000378:	e583104c 	str	r1, [r3, #76]	; 0x4c
 c00037c:	e59f1058 	ldr	r1, [pc, #88]	; c0003dc <dram_init+0xe0>
 c000380:	e3a0c701 	mov	ip, #262144	; 0x40000
 c000384:	e5831200 	str	r1, [r3, #512]	; 0x200
 c000388:	e3a01703 	mov	r1, #786432	; 0xc0000
 c00038c:	e5831008 	str	r1, [r3, #8]
 c000390:	e59f1048 	ldr	r1, [pc, #72]	; c0003e0 <dram_init+0xe4>
 c000394:	e5830008 	str	r0, [r3, #8]
 c000398:	e583c008 	str	ip, [r3, #8]
 c00039c:	e583c008 	str	ip, [r3, #8]
 c0003a0:	e5831008 	str	r1, [r3, #8]
 c0003a4:	e3a0180a 	mov	r1, #655360	; 0xa0000
 c0003a8:	e5831008 	str	r1, [r3, #8]
 c0003ac:	e1a02003 	mov	r2, r3
 c0003b0:	e5830004 	str	r0, [r3, #4]
 c0003b4:	e5923000 	ldr	r3, [r2]
 c0003b8:	e2033003 	and	r3, r3, #3
 c0003bc:	e3530001 	cmp	r3, #1
 c0003c0:	1afffffb 	bne	c0003b4 <dram_init+0xb8>
 c0003c4:	e8bd00f0 	pop	{r4, r5, r6, r7}
 c0003c8:	e12fff1e 	bx	lr
 c0003cc:	7e001000 	cdpvc	0, 0, cr1, cr0, cr0, {0}
 c0003d0:	0000040e 	andeq	r0, r0, lr, lsl #8
 c0003d4:	00010012 	andeq	r0, r1, r2, lsl r0
 c0003d8:	00000b41 	andeq	r0, r0, r1, asr #22
 c0003dc:	000150f8 	strdeq	r5, [r1], -r8
 c0003e0:	00080032 	andeq	r0, r8, r2, lsr r0

0c0003e4 <nand_select>:
 c0003e4:	e59f300c 	ldr	r3, [pc, #12]	; c0003f8 <nand_select+0x14>
 c0003e8:	e5932004 	ldr	r2, [r3, #4]
 c0003ec:	e3c22002 	bic	r2, r2, #2
 c0003f0:	e5832004 	str	r2, [r3, #4]
 c0003f4:	e12fff1e 	bx	lr
 c0003f8:	70200000 	eorvc	r0, r0, r0

0c0003fc <nand_deselect>:
 c0003fc:	e59f300c 	ldr	r3, [pc, #12]	; c000410 <nand_deselect+0x14>
 c000400:	e5932004 	ldr	r2, [r3, #4]
 c000404:	e3822002 	orr	r2, r2, #2
 c000408:	e5832004 	str	r2, [r3, #4]
 c00040c:	e12fff1e 	bx	lr
 c000410:	70200000 	eorvc	r0, r0, r0

0c000414 <nand_cmd>:
 c000414:	e59f3004 	ldr	r3, [pc, #4]	; c000420 <nand_cmd+0xc>
 c000418:	e5830008 	str	r0, [r3, #8]
 c00041c:	e12fff1e 	bx	lr
 c000420:	70200000 	eorvc	r0, r0, r0

0c000424 <nand_addr>:
 c000424:	e59f303c 	ldr	r3, [pc, #60]	; c000468 <nand_addr+0x44>
 c000428:	e1a015a0 	lsr	r1, r0, #11
 c00042c:	e1a0ca80 	lsl	ip, r0, #21
 c000430:	e1a029a0 	lsr	r2, r0, #19
 c000434:	e52d4004 	push	{r4}		; (str r4, [sp, #-4]!)
 c000438:	e1a0ceac 	lsr	ip, ip, #29
 c00043c:	e6ef4070 	uxtb	r4, r0
 c000440:	e6ef1071 	uxtb	r1, r1
 c000444:	e6ef2072 	uxtb	r2, r2
 c000448:	e1a00da0 	lsr	r0, r0, #27
 c00044c:	e583400c 	str	r4, [r3, #12]
 c000450:	e583c00c 	str	ip, [r3, #12]
 c000454:	e583100c 	str	r1, [r3, #12]
 c000458:	e583200c 	str	r2, [r3, #12]
 c00045c:	e583000c 	str	r0, [r3, #12]
 c000460:	e8bd0010 	ldmfd	sp!, {r4}
 c000464:	e12fff1e 	bx	lr
 c000468:	70200000 	eorvc	r0, r0, r0

0c00046c <nand_ready>:
 c00046c:	e59f200c 	ldr	r2, [pc, #12]	; c000480 <nand_ready+0x14>
 c000470:	e5923028 	ldr	r3, [r2, #40]	; 0x28
 c000474:	e3130001 	tst	r3, #1
 c000478:	0afffffc 	beq	c000470 <nand_ready+0x4>
 c00047c:	e12fff1e 	bx	lr
 c000480:	70200000 	eorvc	r0, r0, r0

0c000484 <nand_reset>:
 c000484:	e59f3034 	ldr	r3, [pc, #52]	; c0004c0 <nand_reset+0x3c>
 c000488:	e5932004 	ldr	r2, [r3, #4]
 c00048c:	e1a01003 	mov	r1, r3
 c000490:	e3c22002 	bic	r2, r2, #2
 c000494:	e5832004 	str	r2, [r3, #4]
 c000498:	e3a020ff 	mov	r2, #255	; 0xff
 c00049c:	e5832008 	str	r2, [r3, #8]
 c0004a0:	e5913028 	ldr	r3, [r1, #40]	; 0x28
 c0004a4:	e59f2014 	ldr	r2, [pc, #20]	; c0004c0 <nand_reset+0x3c>
 c0004a8:	e3130001 	tst	r3, #1
 c0004ac:	0afffffb 	beq	c0004a0 <nand_reset+0x1c>
 c0004b0:	e5923004 	ldr	r3, [r2, #4]
 c0004b4:	e3833002 	orr	r3, r3, #2
 c0004b8:	e5823004 	str	r3, [r2, #4]
 c0004bc:	e12fff1e 	bx	lr
 c0004c0:	70200000 	eorvc	r0, r0, r0

0c0004c4 <nand_read_status>:
 c0004c4:	e59f3020 	ldr	r3, [pc, #32]	; c0004ec <nand_read_status+0x28>
 c0004c8:	e3a02070 	mov	r2, #112	; 0x70
 c0004cc:	e5832008 	str	r2, [r3, #8]
 c0004d0:	e5d33010 	ldrb	r3, [r3, #16]
 c0004d4:	e3130001 	tst	r3, #1
 c0004d8:	1a000001 	bne	c0004e4 <nand_read_status+0x20>
 c0004dc:	e59f000c 	ldr	r0, [pc, #12]	; c0004f0 <nand_read_status+0x2c>
 c0004e0:	ea000105 	b	c0008fc <printf_str>
 c0004e4:	e59f0008 	ldr	r0, [pc, #8]	; c0004f4 <nand_read_status+0x30>
 c0004e8:	ea000103 	b	c0008fc <printf_str>
 c0004ec:	70200000 	eorvc	r0, r0, r0
 c0004f0:	0c000b80 	stceq	11, cr0, [r0], {128}	; 0x80
 c0004f4:	0c000b70 	stceq	11, cr0, [r0], {112}	; 0x70

0c0004f8 <nand_init>:
 c0004f8:	e59f20cc 	ldr	r2, [pc, #204]	; c0005cc <nand_init+0xd4>
 c0004fc:	e52d4004 	push	{r4}		; (str r4, [sp, #-4]!)
 c000500:	e5921140 	ldr	r1, [r2, #320]	; 0x140
 c000504:	e59fc0c4 	ldr	ip, [pc, #196]	; c0005d0 <nand_init+0xd8>
 c000508:	e3c1100f 	bic	r1, r1, #15
 c00050c:	e381100a 	orr	r1, r1, #10
 c000510:	e5821140 	str	r1, [r2, #320]	; 0x140
 c000514:	e5921148 	ldr	r1, [r2, #328]	; 0x148
 c000518:	e59f30b4 	ldr	r3, [pc, #180]	; c0005d4 <nand_init+0xdc>
 c00051c:	e3c1100f 	bic	r1, r1, #15
 c000520:	e5821148 	str	r1, [r2, #328]	; 0x148
 c000524:	e5921160 	ldr	r1, [r2, #352]	; 0x160
 c000528:	e59f00a8 	ldr	r0, [pc, #168]	; c0005d8 <nand_init+0xe0>
 c00052c:	e3c11cff 	bic	r1, r1, #65280	; 0xff00
 c000530:	e3c110f0 	bic	r1, r1, #240	; 0xf0
 c000534:	e3811caa 	orr	r1, r1, #43520	; 0xaa00
 c000538:	e38110a0 	orr	r1, r1, #160	; 0xa0
 c00053c:	e5821160 	str	r1, [r2, #352]	; 0x160
 c000540:	e5924168 	ldr	r4, [r2, #360]	; 0x168
 c000544:	e1a01003 	mov	r1, r3
 c000548:	e3c44cff 	bic	r4, r4, #65280	; 0xff00
 c00054c:	e3c440f0 	bic	r4, r4, #240	; 0xf0
 c000550:	e5824168 	str	r4, [r2, #360]	; 0x168
 c000554:	e59c2120 	ldr	r2, [ip, #288]	; 0x120
 c000558:	e3c22002 	bic	r2, r2, #2
 c00055c:	e58c2120 	str	r2, [ip, #288]	; 0x120
 c000560:	e5932000 	ldr	r2, [r3]
 c000564:	e0020000 	and	r0, r2, r0
 c000568:	e5830000 	str	r0, [r3]
 c00056c:	e5932000 	ldr	r2, [r3]
 c000570:	e3822c21 	orr	r2, r2, #8448	; 0x2100
 c000574:	e3822010 	orr	r2, r2, #16
 c000578:	e5832000 	str	r2, [r3]
 c00057c:	e5932004 	ldr	r2, [r3, #4]
 c000580:	e3822001 	orr	r2, r2, #1
 c000584:	e5832004 	str	r2, [r3, #4]
 c000588:	e5932004 	ldr	r2, [r3, #4]
 c00058c:	e3c22801 	bic	r2, r2, #65536	; 0x10000
 c000590:	e5832004 	str	r2, [r3, #4]
 c000594:	e5932004 	ldr	r2, [r3, #4]
 c000598:	e3c22002 	bic	r2, r2, #2
 c00059c:	e5832004 	str	r2, [r3, #4]
 c0005a0:	e3a020ff 	mov	r2, #255	; 0xff
 c0005a4:	e5832008 	str	r2, [r3, #8]
 c0005a8:	e5913028 	ldr	r3, [r1, #40]	; 0x28
 c0005ac:	e59f2020 	ldr	r2, [pc, #32]	; c0005d4 <nand_init+0xdc>
 c0005b0:	e3130001 	tst	r3, #1
 c0005b4:	0afffffb 	beq	c0005a8 <nand_init+0xb0>
 c0005b8:	e5923004 	ldr	r3, [r2, #4]
 c0005bc:	e3833002 	orr	r3, r3, #2
 c0005c0:	e5823004 	str	r3, [r2, #4]
 c0005c4:	e8bd0010 	ldmfd	sp!, {r4}
 c0005c8:	e12fff1e 	bx	lr
 c0005cc:	7f008000 	svcvc	0x00008000
 c0005d0:	7e00f000 	cdpvc	0, 0, cr15, cr0, cr0, {0}
 c0005d4:	70200000 	eorvc	r0, r0, r0
 c0005d8:	bfff888f 	svclt	0x00ff888f

0c0005dc <nand_read>:
 c0005dc:	e92d45f8 	push	{r3, r4, r5, r6, r7, r8, sl, lr}
 c0005e0:	e59f508c 	ldr	r5, [pc, #140]	; c000674 <nand_read+0x98>
 c0005e4:	e3520000 	cmp	r2, #0
 c0005e8:	e5953004 	ldr	r3, [r5, #4]
 c0005ec:	e1a04001 	mov	r4, r1
 c0005f0:	e3c33002 	bic	r3, r3, #2
 c0005f4:	e5853004 	str	r3, [r5, #4]
 c0005f8:	0a000017 	beq	c00065c <nand_read+0x80>
 c0005fc:	e1a0a000 	mov	sl, r0
 c000600:	e1a08002 	mov	r8, r2
 c000604:	e3a07000 	mov	r7, #0
 c000608:	e3a06030 	mov	r6, #48	; 0x30
 c00060c:	e1a0000a 	mov	r0, sl
 c000610:	e5857008 	str	r7, [r5, #8]
 c000614:	ebffff82 	bl	c000424 <nand_addr>
 c000618:	e5856008 	str	r6, [r5, #8]
 c00061c:	e5953028 	ldr	r3, [r5, #40]	; 0x28
 c000620:	e3130001 	tst	r3, #1
 c000624:	0afffffc 	beq	c00061c <nand_read+0x40>
 c000628:	e3580b02 	cmp	r8, #2048	; 0x800
 c00062c:	31a01008 	movcc	r1, r8
 c000630:	23a01b02 	movcs	r1, #2048	; 0x800
 c000634:	e3510000 	cmp	r1, #0
 c000638:	0a000004 	beq	c000650 <nand_read+0x74>
 c00063c:	e0842001 	add	r2, r4, r1
 c000640:	e5d53010 	ldrb	r3, [r5, #16]
 c000644:	e4c43001 	strb	r3, [r4], #1
 c000648:	e1540002 	cmp	r4, r2
 c00064c:	1afffffb 	bne	c000640 <nand_read+0x64>
 c000650:	e0588001 	subs	r8, r8, r1
 c000654:	e08aa001 	add	sl, sl, r1
 c000658:	1affffeb 	bne	c00060c <nand_read+0x30>
 c00065c:	e59f3010 	ldr	r3, [pc, #16]	; c000674 <nand_read+0x98>
 c000660:	e3a00000 	mov	r0, #0
 c000664:	e5932004 	ldr	r2, [r3, #4]
 c000668:	e3822002 	orr	r2, r2, #2
 c00066c:	e5832004 	str	r2, [r3, #4]
 c000670:	e8bd85f8 	pop	{r3, r4, r5, r6, r7, r8, sl, pc}
 c000674:	70200000 	eorvc	r0, r0, r0

0c000678 <nand_erase_block>:
 c000678:	e12fff1e 	bx	lr

0c00067c <nand_erase>:
 c00067c:	e59f3064 	ldr	r3, [pc, #100]	; c0006e8 <nand_erase+0x6c>
 c000680:	e1a005a0 	lsr	r0, r0, #11
 c000684:	e5932004 	ldr	r2, [r3, #4]
 c000688:	e1a01440 	asr	r1, r0, #8
 c00068c:	e92d4010 	push	{r4, lr}
 c000690:	e3c22002 	bic	r2, r2, #2
 c000694:	e6efc070 	uxtb	ip, r0
 c000698:	e6ef1071 	uxtb	r1, r1
 c00069c:	e3a0e060 	mov	lr, #96	; 0x60
 c0006a0:	e5832004 	str	r2, [r3, #4]
 c0006a4:	e1a00840 	asr	r0, r0, #16
 c0006a8:	e583e008 	str	lr, [r3, #8]
 c0006ac:	e583c00c 	str	ip, [r3, #12]
 c0006b0:	e583100c 	str	r1, [r3, #12]
 c0006b4:	e3a010d0 	mov	r1, #208	; 0xd0
 c0006b8:	e583000c 	str	r0, [r3, #12]
 c0006bc:	e1a02003 	mov	r2, r3
 c0006c0:	e5831008 	str	r1, [r3, #8]
 c0006c4:	e5923028 	ldr	r3, [r2, #40]	; 0x28
 c0006c8:	e59f4018 	ldr	r4, [pc, #24]	; c0006e8 <nand_erase+0x6c>
 c0006cc:	e3130001 	tst	r3, #1
 c0006d0:	0afffffb 	beq	c0006c4 <nand_erase+0x48>
 c0006d4:	ebffff7a 	bl	c0004c4 <nand_read_status>
 c0006d8:	e5943004 	ldr	r3, [r4, #4]
 c0006dc:	e3833002 	orr	r3, r3, #2
 c0006e0:	e5843004 	str	r3, [r4, #4]
 c0006e4:	e8bd8010 	pop	{r4, pc}
 c0006e8:	70200000 	eorvc	r0, r0, r0

0c0006ec <nand_write>:
 c0006ec:	e92d4ff8 	push	{r3, r4, r5, r6, r7, r8, r9, sl, fp, lr}
 c0006f0:	e59f40b8 	ldr	r4, [pc, #184]	; c0007b0 <nand_write+0xc4>
 c0006f4:	e1a09a80 	lsl	r9, r0, #21
 c0006f8:	e5943004 	ldr	r3, [r4, #4]
 c0006fc:	e2525000 	subs	r5, r2, #0
 c000700:	e3c33002 	bic	r3, r3, #2
 c000704:	e1a07001 	mov	r7, r1
 c000708:	e1a09aa9 	lsr	r9, r9, #21
 c00070c:	e5843004 	str	r3, [r4, #4]
 c000710:	0a000021 	beq	c00079c <nand_write+0xb0>
 c000714:	e59f6098 	ldr	r6, [pc, #152]	; c0007b4 <nand_write+0xc8>
 c000718:	e1a0a000 	mov	sl, r0
 c00071c:	e3a0b000 	mov	fp, #0
 c000720:	e3a08080 	mov	r8, #128	; 0x80
 c000724:	e1a0000a 	mov	r0, sl
 c000728:	e5848008 	str	r8, [r4, #8]
 c00072c:	ebffff3c 	bl	c000424 <nand_addr>
 c000730:	e155000b 	cmp	r5, fp
 c000734:	9a00000f 	bls	c000778 <nand_write+0x8c>
 c000738:	e1a0300b 	mov	r3, fp
 c00073c:	e06b200a 	rsb	r2, fp, sl
 c000740:	e06b9009 	rsb	r9, fp, r9
 c000744:	e7d7c003 	ldrb	ip, [r7, r3]
 c000748:	e2833001 	add	r3, r3, #1
 c00074c:	e089e003 	add	lr, r9, r3
 c000750:	e15e0006 	cmp	lr, r6
 c000754:	c3a0e000 	movgt	lr, #0
 c000758:	d3a0e001 	movle	lr, #1
 c00075c:	e1550003 	cmp	r5, r3
 c000760:	93a0e000 	movls	lr, #0
 c000764:	e35e0000 	cmp	lr, #0
 c000768:	e5c4c010 	strb	ip, [r4, #16]
 c00076c:	e082a003 	add	sl, r2, r3
 c000770:	1afffff3 	bne	c000744 <nand_write+0x58>
 c000774:	e1a0b003 	mov	fp, r3
 c000778:	e3a03010 	mov	r3, #16
 c00077c:	e5843008 	str	r3, [r4, #8]
 c000780:	e5943028 	ldr	r3, [r4, #40]	; 0x28
 c000784:	e3130001 	tst	r3, #1
 c000788:	0afffffc 	beq	c000780 <nand_write+0x94>
 c00078c:	ebffff4c 	bl	c0004c4 <nand_read_status>
 c000790:	e155000b 	cmp	r5, fp
 c000794:	e3a09000 	mov	r9, #0
 c000798:	8affffe1 	bhi	c000724 <nand_write+0x38>
 c00079c:	e59f300c 	ldr	r3, [pc, #12]	; c0007b0 <nand_write+0xc4>
 c0007a0:	e5932004 	ldr	r2, [r3, #4]
 c0007a4:	e3822002 	orr	r2, r2, #2
 c0007a8:	e5832004 	str	r2, [r3, #4]
 c0007ac:	e8bd8ff8 	pop	{r3, r4, r5, r6, r7, r8, r9, sl, fp, pc}
 c0007b0:	70200000 	eorvc	r0, r0, r0
 c0007b4:	000007ff 	strdeq	r0, [r0], -pc	; <UNPREDICTABLE>

0c0007b8 <copy2ddr>:
 c0007b8:	e92d4070 	push	{r4, r5, r6, lr}
 c0007bc:	e1a05000 	mov	r5, r0
 c0007c0:	e3a04000 	mov	r4, #0
 c0007c4:	e3550b02 	cmp	r5, #2048	; 0x800
 c0007c8:	31a06005 	movcc	r6, r5
 c0007cc:	23a06b02 	movcs	r6, #2048	; 0x800
 c0007d0:	e1a00004 	mov	r0, r4
 c0007d4:	e2841205 	add	r1, r4, #1342177280	; 0x50000000
 c0007d8:	e1a02006 	mov	r2, r6
 c0007dc:	ebffff7e 	bl	c0005dc <nand_read>
 c0007e0:	e0555006 	subs	r5, r5, r6
 c0007e4:	e2844b02 	add	r4, r4, #2048	; 0x800
 c0007e8:	08bd8070 	popeq	{r4, r5, r6, pc}
 c0007ec:	e3540a02 	cmp	r4, #8192	; 0x2000
 c0007f0:	1afffff3 	bne	c0007c4 <copy2ddr+0xc>
 c0007f4:	e59f100c 	ldr	r1, [pc, #12]	; c000808 <copy2ddr+0x50>
 c0007f8:	e1a00004 	mov	r0, r4
 c0007fc:	e1a02005 	mov	r2, r5
 c000800:	e8bd4070 	pop	{r4, r5, r6, lr}
 c000804:	eaffff74 	b	c0005dc <nand_read>
 c000808:	50000800 	andpl	r0, r0, r0, lsl #16

0c00080c <store2nand>:
 c00080c:	e92d40f8 	push	{r3, r4, r5, r6, r7, lr}
 c000810:	e1a07000 	mov	r7, r0
 c000814:	e1a05001 	mov	r5, r1
 c000818:	e3a04000 	mov	r4, #0
 c00081c:	e3550b02 	cmp	r5, #2048	; 0x800
 c000820:	31a06005 	movcc	r6, r5
 c000824:	23a06b02 	movcs	r6, #2048	; 0x800
 c000828:	e1a00004 	mov	r0, r4
 c00082c:	e0841007 	add	r1, r4, r7
 c000830:	e1a02006 	mov	r2, r6
 c000834:	ebffffac 	bl	c0006ec <nand_write>
 c000838:	e0555006 	subs	r5, r5, r6
 c00083c:	e2844b02 	add	r4, r4, #2048	; 0x800
 c000840:	08bd80f8 	popeq	{r3, r4, r5, r6, r7, pc}
 c000844:	e3540a02 	cmp	r4, #8192	; 0x2000
 c000848:	1afffff3 	bne	c00081c <store2nand+0x10>
 c00084c:	e1a00004 	mov	r0, r4
 c000850:	e2871a02 	add	r1, r7, #8192	; 0x2000
 c000854:	e1a02005 	mov	r2, r5
 c000858:	e8bd40f8 	pop	{r3, r4, r5, r6, r7, lr}
 c00085c:	eaffffa2 	b	c0006ec <nand_write>

0c000860 <clear_bss>:
 c000860:	e2811003 	add	r1, r1, #3
 c000864:	e1a03121 	lsr	r3, r1, #2
 c000868:	e3530000 	cmp	r3, #0
 c00086c:	e2433001 	sub	r3, r3, #1
 c000870:	012fff1e 	bxeq	lr
 c000874:	e3a02000 	mov	r2, #0
 c000878:	e2433001 	sub	r3, r3, #1
 c00087c:	e3730001 	cmn	r3, #1
 c000880:	e4802004 	str	r2, [r0], #4
 c000884:	1afffffb 	bne	c000878 <clear_bss+0x18>
 c000888:	e12fff1e 	bx	lr

0c00088c <scan_byte>:
 c00088c:	e59f3014 	ldr	r3, [pc, #20]	; c0008a8 <scan_byte+0x1c>
 c000890:	e5932000 	ldr	r2, [r3]
 c000894:	e5923018 	ldr	r3, [r2, #24]
 c000898:	e313003f 	tst	r3, #63	; 0x3f
 c00089c:	0afffffc 	beq	c000894 <scan_byte+0x8>
 c0008a0:	e5d20024 	ldrb	r0, [r2, #36]	; 0x24
 c0008a4:	e12fff1e 	bx	lr
 c0008a8:	0c000c20 	stceq	12, cr0, [r0], {32}

0c0008ac <read_byte>:
 c0008ac:	e59f301c 	ldr	r3, [pc, #28]	; c0008d0 <read_byte+0x24>
 c0008b0:	e5932000 	ldr	r2, [r3]
 c0008b4:	e5923018 	ldr	r3, [r2, #24]
 c0008b8:	e213303f 	ands	r3, r3, #63	; 0x3f
 c0008bc:	15d22024 	ldrbne	r2, [r2, #36]	; 0x24
 c0008c0:	13a03001 	movne	r3, #1
 c0008c4:	15c02000 	strbne	r2, [r0]
 c0008c8:	e1a00003 	mov	r0, r3
 c0008cc:	e12fff1e 	bx	lr
 c0008d0:	0c000c20 	stceq	12, cr0, [r0], {32}

0c0008d4 <printf_byte>:
 c0008d4:	e59f301c 	ldr	r3, [pc, #28]	; c0008f8 <printf_byte+0x24>
 c0008d8:	e5932000 	ldr	r2, [r3]
 c0008dc:	e5923018 	ldr	r3, [r2, #24]
 c0008e0:	e1a03423 	lsr	r3, r3, #8
 c0008e4:	e203303f 	and	r3, r3, #63	; 0x3f
 c0008e8:	e353003f 	cmp	r3, #63	; 0x3f
 c0008ec:	0afffffa 	beq	c0008dc <printf_byte+0x8>
 c0008f0:	e5c20020 	strb	r0, [r2, #32]
 c0008f4:	e12fff1e 	bx	lr
 c0008f8:	0c000c20 	stceq	12, cr0, [r0], {32}

0c0008fc <printf_str>:
 c0008fc:	e5d01000 	ldrb	r1, [r0]
 c000900:	e3510000 	cmp	r1, #0
 c000904:	012fff1e 	bxeq	lr
 c000908:	e59f3028 	ldr	r3, [pc, #40]	; c000938 <printf_str+0x3c>
 c00090c:	e5932000 	ldr	r2, [r3]
 c000910:	e5923018 	ldr	r3, [r2, #24]
 c000914:	e1a03423 	lsr	r3, r3, #8
 c000918:	e203303f 	and	r3, r3, #63	; 0x3f
 c00091c:	e353003f 	cmp	r3, #63	; 0x3f
 c000920:	0afffffa 	beq	c000910 <printf_str+0x14>
 c000924:	e5c21020 	strb	r1, [r2, #32]
 c000928:	e5f01001 	ldrb	r1, [r0, #1]!
 c00092c:	e3510000 	cmp	r1, #0
 c000930:	1afffff6 	bne	c000910 <printf_str+0x14>
 c000934:	e12fff1e 	bx	lr
 c000938:	0c000c20 	stceq	12, cr0, [r0], {32}

0c00093c <module_init_uart0>:
 c00093c:	e59f30a8 	ldr	r3, [pc, #168]	; c0009ec <module_init_uart0+0xb0>
 c000940:	e59f10a8 	ldr	r1, [pc, #168]	; c0009f0 <module_init_uart0+0xb4>
 c000944:	e5930000 	ldr	r0, [r3]
 c000948:	e59f20a4 	ldr	r2, [pc, #164]	; c0009f4 <module_init_uart0+0xb8>
 c00094c:	e3c000ff 	bic	r0, r0, #255	; 0xff
 c000950:	e3800022 	orr	r0, r0, #34	; 0x22
 c000954:	e5830000 	str	r0, [r3]
 c000958:	e5930008 	ldr	r0, [r3, #8]
 c00095c:	e3c0000f 	bic	r0, r0, #15
 c000960:	e5830008 	str	r0, [r3, #8]
 c000964:	e593000c 	ldr	r0, [r3, #12]
 c000968:	e380000f 	orr	r0, r0, #15
 c00096c:	e583000c 	str	r0, [r3, #12]
 c000970:	e5930010 	ldr	r0, [r3, #16]
 c000974:	e3c0000f 	bic	r0, r0, #15
 c000978:	e5830010 	str	r0, [r3, #16]
 c00097c:	e591001c 	ldr	r0, [r1, #28]
 c000980:	e3800a02 	orr	r0, r0, #8192	; 0x2000
 c000984:	e581001c 	str	r0, [r1, #28]
 c000988:	e5910028 	ldr	r0, [r1, #40]	; 0x28
 c00098c:	e3c0080f 	bic	r0, r0, #983040	; 0xf0000
 c000990:	e3800801 	orr	r0, r0, #65536	; 0x10000
 c000994:	e5810028 	str	r0, [r1, #40]	; 0x28
 c000998:	e3a00003 	mov	r0, #3
 c00099c:	e5820000 	str	r0, [r2]
 c0009a0:	e59f0050 	ldr	r0, [pc, #80]	; c0009f8 <module_init_uart0+0xbc>
 c0009a4:	e5820004 	str	r0, [r2, #4]
 c0009a8:	e3a00057 	mov	r0, #87	; 0x57
 c0009ac:	e5820008 	str	r0, [r2, #8]
 c0009b0:	e3a00000 	mov	r0, #0
 c0009b4:	e582000c 	str	r0, [r2, #12]
 c0009b8:	e3a00023 	mov	r0, #35	; 0x23
 c0009bc:	e5820028 	str	r0, [r2, #40]	; 0x28
 c0009c0:	e3a00080 	mov	r0, #128	; 0x80
 c0009c4:	e582002c 	str	r0, [r2, #44]	; 0x2c
 c0009c8:	e59f002c 	ldr	r0, [pc, #44]	; c0009fc <module_init_uart0+0xc0>
 c0009cc:	e5801000 	str	r1, [r0]
 c0009d0:	e59f1028 	ldr	r1, [pc, #40]	; c000a00 <module_init_uart0+0xc4>
 c0009d4:	e3a00001 	mov	r0, #1
 c0009d8:	e5812000 	str	r2, [r1]
 c0009dc:	e59f1020 	ldr	r1, [pc, #32]	; c000a04 <module_init_uart0+0xc8>
 c0009e0:	e5813000 	str	r3, [r1]
 c0009e4:	e5923014 	ldr	r3, [r2, #20]
 c0009e8:	e12fff1e 	bx	lr
 c0009ec:	7f008000 	svcvc	0x00008000
 c0009f0:	7e00f000 	cdpvc	0, 0, cr15, cr0, cr0, {0}
 c0009f4:	7f005000 	svcvc	0x00005000
 c0009f8:	00000805 	andeq	r0, r0, r5, lsl #16
 c0009fc:	0c000c18 	stceq	12, cr0, [r0], {24}
 c000a00:	0c000c20 	stceq	12, cr0, [r0], {32}
 c000a04:	0c000c24 	stceq	12, cr0, [r0], {36}	; 0x24

0c000a08 <get_packet>:
 c000a08:	e92d4030 	push	{r4, r5, lr}
 c000a0c:	e59f4084 	ldr	r4, [pc, #132]	; c000a98 <get_packet+0x90>
 c000a10:	e24dd00c 	sub	sp, sp, #12
 c000a14:	e1a05000 	mov	r5, r0
 c000a18:	ea000001 	b	c000a24 <get_packet+0x1c>
 c000a1c:	e2544001 	subs	r4, r4, #1
 c000a20:	0a00000f 	beq	c000a64 <get_packet+0x5c>
 c000a24:	e28d0007 	add	r0, sp, #7
 c000a28:	ebffff9f 	bl	c0008ac <read_byte>
 c000a2c:	e3500000 	cmp	r0, #0
 c000a30:	0afffff9 	beq	c000a1c <get_packet+0x14>
 c000a34:	e5dd0007 	ldrb	r0, [sp, #7]
 c000a38:	e3500004 	cmp	r0, #4
 c000a3c:	0a000004 	beq	c000a54 <get_packet+0x4c>
 c000a40:	9a000005 	bls	c000a5c <get_packet+0x54>
 c000a44:	e3500018 	cmp	r0, #24
 c000a48:	0a000001 	beq	c000a54 <get_packet+0x4c>
 c000a4c:	e3500073 	cmp	r0, #115	; 0x73
 c000a50:	1a000003 	bne	c000a64 <get_packet+0x5c>
 c000a54:	e28dd00c 	add	sp, sp, #12
 c000a58:	e8bd8030 	pop	{r4, r5, pc}
 c000a5c:	e3500001 	cmp	r0, #1
 c000a60:	0a000001 	beq	c000a6c <get_packet+0x64>
 c000a64:	e3a000ff 	mov	r0, #255	; 0xff
 c000a68:	eafffff9 	b	c000a54 <get_packet+0x4c>
 c000a6c:	ebffff86 	bl	c00088c <scan_byte>
 c000a70:	ebffff85 	bl	c00088c <scan_byte>
 c000a74:	e3a04000 	mov	r4, #0
 c000a78:	ebffff83 	bl	c00088c <scan_byte>
 c000a7c:	e7c50004 	strb	r0, [r5, r4]
 c000a80:	e2844001 	add	r4, r4, #1
 c000a84:	e3540080 	cmp	r4, #128	; 0x80
 c000a88:	1afffffa 	bne	c000a78 <get_packet+0x70>
 c000a8c:	ebffff7e 	bl	c00088c <scan_byte>
 c000a90:	e3a00001 	mov	r0, #1
 c000a94:	eaffffee 	b	c000a54 <get_packet+0x4c>
 c000a98:	000f4240 	andeq	r4, pc, r0, asr #4

Disassembly of section .text.startup:

0c000a9c <main>:
 c000a9c:	e92d4008 	push	{r3, lr}
 c000aa0:	ebffffa5 	bl	c00093c <module_init_uart0>
 c000aa4:	e59f0098 	ldr	r0, [pc, #152]	; c000b44 <main+0xa8>
 c000aa8:	ebffff93 	bl	c0008fc <printf_str>
 c000aac:	e59f3094 	ldr	r3, [pc, #148]	; c000b48 <main+0xac>
 c000ab0:	e59f1094 	ldr	r1, [pc, #148]	; c000b4c <main+0xb0>
 c000ab4:	e3a02061 	mov	r2, #97	; 0x61
 c000ab8:	e5e32001 	strb	r2, [r3, #1]!
 c000abc:	e1530001 	cmp	r3, r1
 c000ac0:	1afffffc 	bne	c000ab8 <main+0x1c>
 c000ac4:	e59f0084 	ldr	r0, [pc, #132]	; c000b50 <main+0xb4>
 c000ac8:	ebffff8b 	bl	c0008fc <printf_str>
 c000acc:	e3a00000 	mov	r0, #0
 c000ad0:	ebfffee9 	bl	c00067c <nand_erase>
 c000ad4:	e59f0078 	ldr	r0, [pc, #120]	; c000b54 <main+0xb8>
 c000ad8:	ebffff87 	bl	c0008fc <printf_str>
 c000adc:	e59f1074 	ldr	r1, [pc, #116]	; c000b58 <main+0xbc>
 c000ae0:	e3a02b02 	mov	r2, #2048	; 0x800
 c000ae4:	e3a00a02 	mov	r0, #8192	; 0x2000
 c000ae8:	ebfffeff 	bl	c0006ec <nand_write>
 c000aec:	e59f0068 	ldr	r0, [pc, #104]	; c000b5c <main+0xc0>
 c000af0:	ebffff81 	bl	c0008fc <printf_str>
 c000af4:	e3a02b02 	mov	r2, #2048	; 0x800
 c000af8:	e3a01205 	mov	r1, #1342177280	; 0x50000000
 c000afc:	e3a00a02 	mov	r0, #8192	; 0x2000
 c000b00:	ebfffeb5 	bl	c0005dc <nand_read>
 c000b04:	e59f0054 	ldr	r0, [pc, #84]	; c000b60 <main+0xc4>
 c000b08:	ebffff7b 	bl	c0008fc <printf_str>
 c000b0c:	e59f2050 	ldr	r2, [pc, #80]	; c000b64 <main+0xc8>
 c000b10:	e3e0320b 	mvn	r3, #-1342177280	; 0xb0000000
 c000b14:	ea000001 	b	c000b20 <main+0x84>
 c000b18:	e1530002 	cmp	r3, r2
 c000b1c:	0a000005 	beq	c000b38 <main+0x9c>
 c000b20:	e5f31001 	ldrb	r1, [r3, #1]!
 c000b24:	e3510061 	cmp	r1, #97	; 0x61
 c000b28:	0afffffa 	beq	c000b18 <main+0x7c>
 c000b2c:	e59f0034 	ldr	r0, [pc, #52]	; c000b68 <main+0xcc>
 c000b30:	ebffff71 	bl	c0008fc <printf_str>
 c000b34:	eafffffe 	b	c000b34 <main+0x98>
 c000b38:	e59f002c 	ldr	r0, [pc, #44]	; c000b6c <main+0xd0>
 c000b3c:	ebffff6e 	bl	c0008fc <printf_str>
 c000b40:	eafffffb 	b	c000b34 <main+0x98>
 c000b44:	0c000b90 	stceq	11, cr0, [r0], {144}	; 0x90
 c000b48:	57dfffff 			; <UNDEFINED> instruction: 0x57dfffff
 c000b4c:	57e007ff 			; <UNDEFINED> instruction: 0x57e007ff
 c000b50:	0c000ba0 	stceq	11, cr0, [r0], {160}	; 0xa0
 c000b54:	0c000bb0 	stceq	11, cr0, [r0], {176}	; 0xb0
 c000b58:	57e00000 	strbpl	r0, [r0, r0]!
 c000b5c:	0c000bc0 	stceq	11, cr0, [r0], {192}	; 0xc0
 c000b60:	0c000bd0 	stceq	11, cr0, [r0], {208}	; 0xd0
 c000b64:	5000007f 	andpl	r0, r0, pc, ror r0
 c000b68:	0c000be8 	stceq	11, cr0, [r0], {232}	; 0xe8
 c000b6c:	0c000c00 	stceq	12, cr0, [r0], {-0}

Disassembly of section .rodata:

0c000b70 <.rodata>:
 c000b70:	6f430a0d 	svcvs	0x00430a0d
 c000b74:	6e616d6d 	cdpvs	13, 6, cr6, cr1, cr13, {3}
 c000b78:	41462064 	cmpmi	r6, r4, rrx
 c000b7c:	00004c49 	andeq	r4, r0, r9, asr #24
 c000b80:	6f430a0d 	svcvs	0x00430a0d
 c000b84:	6e616d6d 	cdpvs	13, 6, cr6, cr1, cr13, {3}
 c000b88:	4b4f2064 	blmi	d3c8d20 <user_reserved+0xbc8e08>
 c000b8c:	00000000 	andeq	r0, r0, r0
 c000b90:	61770d0a 	cmnvs	r7, sl, lsl #26
 c000b94:	6e697469 	cdpvs	4, 6, cr7, cr9, cr9, {3}
 c000b98:	2e2e2e67 	cdpcs	14, 2, cr2, cr14, cr7, {3}
 c000b9c:	00000000 	andeq	r0, r0, r0
 c000ba0:	616e0a0d 	cmnvs	lr, sp, lsl #20
 c000ba4:	6520646e 	strvs	r6, [r0, #-1134]!	; 0x46e
 c000ba8:	65736172 	ldrbvs	r6, [r3, #-370]!	; 0x172
 c000bac:	002e2e2e 	eoreq	r2, lr, lr, lsr #28
 c000bb0:	616e0a0d 	cmnvs	lr, sp, lsl #20
 c000bb4:	7720646e 	strvc	r6, [r0, -lr, ror #8]!
 c000bb8:	65746972 	ldrbvs	r6, [r4, #-2418]!	; 0x972
 c000bbc:	002e2e2e 	eoreq	r2, lr, lr, lsr #28
 c000bc0:	616e0a0d 	cmnvs	lr, sp, lsl #20
 c000bc4:	7220646e 	eorvc	r6, r0, #1845493760	; 0x6e000000
 c000bc8:	2e646165 	powcssz	f6, f4, f5
 c000bcc:	00002e2e 	andeq	r2, r0, lr, lsr #28
 c000bd0:	65720a0d 	ldrbvs	r0, [r2, #-2573]!	; 0xa0d
 c000bd4:	64206461 	strtvs	r6, [r0], #-1121	; 0x461
 c000bd8:	20657461 	rsbcs	r7, r5, r1, ror #8
 c000bdc:	6d6f7266 	sfmvs	f7, 2, [pc, #-408]!	; c000a4c <get_packet+0x44>
 c000be0:	72646420 	rsbvc	r6, r4, #32, 8	; 0x20000000
 c000be4:	00000a0d 	andeq	r0, r0, sp, lsl #20
 c000be8:	616e0a0d 	cmnvs	lr, sp, lsl #20
 c000bec:	7420646e 	strtvc	r6, [r0], #-1134	; 0x46e
 c000bf0:	20747365 	rsbscs	r7, r4, r5, ror #6
 c000bf4:	6f727265 	svcvs	0x00727265
 c000bf8:	2e2e2e72 	mcrcs	14, 1, r2, cr14, cr2, {3}
 c000bfc:	00000000 	andeq	r0, r0, r0
 c000c00:	616e0a0d 	cmnvs	lr, sp, lsl #20
 c000c04:	7420646e 	strtvc	r6, [r0], #-1134	; 0x46e
 c000c08:	20747365 	rsbscs	r7, r4, r5, ror #6
 c000c0c:	2e2e4b4f 	vnmulcs.f64	d4, d14, d15
 c000c10:	0000002e 	andeq	r0, r0, lr, lsr #32

Disassembly of section .bss:

0c000c14 <u16g_evtt_uart0_error>:
	...

0c000c16 <u16g_evtt_uart2_error>:
	...

0c000c18 <pg_syscon_reg>:
 c000c18:	00000000 	andeq	r0, r0, r0

0c000c1c <u16g_evtt_uart1_error>:
 c000c1c:	00000000 	andeq	r0, r0, r0

0c000c20 <pg_uart_reg>:
 c000c20:	00000000 	andeq	r0, r0, r0

0c000c24 <pg_gpio_reg>:
 c000c24:	00000000 	andeq	r0, r0, r0

Disassembly of section .ARM.attributes:

00000000 <.ARM.attributes>:
   0:	00003341 	andeq	r3, r0, r1, asr #6
   4:	61656100 	cmnvs	r5, r0, lsl #2
   8:	01006962 	tsteq	r0, r2, ror #18
   c:	00000029 	andeq	r0, r0, r9, lsr #32
  10:	4d524105 	ldfmie	f4, [r2, #-20]	; 0xffffffec
  14:	36373131 			; <UNDEFINED> instruction: 0x36373131
  18:	2d465a4a 	vstrcs	s11, [r6, #-296]	; 0xfffffed8
  1c:	07060053 	smlsdeq	r6, r3, r0, r0
  20:	01090108 	tsteq	r9, r8, lsl #2
  24:	01140412 	tsteq	r4, r2, lsl r4
  28:	03170115 	tsteq	r7, #1073741829	; 0x40000005
  2c:	011a0118 	tsteq	sl, r8, lsl r1
  30:	01440122 	cmpeq	r4, r2, lsr #2

Disassembly of section .comment:

00000000 <.comment>:
   0:	3a434347 	bcc	10d0d24 <R1_VE+0xd0d24>
   4:	4e472820 	cdpmi	8, 4, cr2, cr7, cr0, {1}
   8:	34202955 	strtcc	r2, [r0], #-2389	; 0x955
   c:	322e372e 	eorcc	r3, lr, #12058624	; 0xb80000
	...

Disassembly of section .debug_line:

00000000 <.debug_line>:
   0:	000000fd 	strdeq	r0, [r0], -sp
   4:	00200002 	eoreq	r0, r0, r2
   8:	01020000 	mrseq	r0, (UNDEF: 2)
   c:	000d0efb 	strdeq	r0, [sp], -fp
  10:	01010101 	tsteq	r1, r1, lsl #2
  14:	01000000 	mrseq	r0, (UNDEF: 0)
  18:	00010000 	andeq	r0, r1, r0
  1c:	74696e69 	strbtvc	r6, [r9], #-3689	; 0xe69
  20:	2e757063 	cdpcs	0, 7, cr7, cr5, cr3, {3}
  24:	00000053 	andeq	r0, r0, r3, asr r0
  28:	05000000 	streq	r0, [r0, #-0]
  2c:	00000002 	andeq	r0, r0, r2
  30:	00cb030c 	sbceq	r0, fp, ip, lsl #6
  34:	2f2f2f01 	svccs	0x002f2f01
  38:	302f302f 	eorcc	r3, pc, pc, lsr #32
  3c:	2f312f2f 	svccs	0x00312f2f
  40:	302f2f31 	eorcc	r2, pc, r1, lsr pc	; <UNPREDICTABLE>
  44:	2f302f2f 	svccs	0x00302f2f
  48:	2f2f312f 	svccs	0x002f312f
  4c:	2f2f302f 	svccs	0x002f302f
  50:	2f302f2f 	svccs	0x00302f2f
  54:	2f2f312f 	svccs	0x002f312f
  58:	2f2f312f 	svccs	0x002f312f
  5c:	2f2f302f 	svccs	0x002f302f
  60:	302f2f2f 	eorcc	r2, pc, pc, lsr #30
  64:	2f2f2f2f 	svccs	0x002f2f2f
  68:	2f2f302f 	svccs	0x002f302f
  6c:	302f2f2f 	eorcc	r2, pc, pc, lsr #30
  70:	2f2f2f2f 	svccs	0x002f2f2f
  74:	2f2f302f 	svccs	0x002f302f
  78:	302f3031 	eorcc	r3, pc, r1, lsr r0	; <UNPREDICTABLE>
  7c:	2f2f2f31 	svccs	0x002f2f31
  80:	2f2f2f30 	svccs	0x002f2f30
  84:	312f2f2f 	teqcc	pc, pc, lsr #30
  88:	2f2f302f 	svccs	0x002f302f
  8c:	2f2f302f 	svccs	0x002f302f
  90:	302f2f30 	eorcc	r2, pc, r0, lsr pc	; <UNPREDICTABLE>
  94:	2f302f2f 	svccs	0x00302f2f
  98:	2f2f322f 	svccs	0x002f322f
  9c:	2f2f2f2f 	svccs	0x002f2f2f
  a0:	2f2f312f 	svccs	0x002f312f
  a4:	302f362f 	eorcc	r3, pc, pc, lsr #12
  a8:	2f2f2f2f 	svccs	0x002f2f2f
  ac:	312f2f30 	teqcc	pc, r0, lsr pc	; <UNPREDICTABLE>
  b0:	2f302f2f 	svccs	0x00302f2f
  b4:	2f2f2f2f 	svccs	0x002f2f2f
  b8:	2f2f3030 	svccs	0x002f3030
  bc:	302f2f2f 	eorcc	r2, pc, pc, lsr #30
  c0:	2f2f2f30 	svccs	0x002f2f30
  c4:	2f2f2f2f 	svccs	0x002f2f2f
  c8:	2f312f2f 	svccs	0x00312f2f
  cc:	2f30312f 	svccs	0x0030312f
  d0:	2e7eac03 	cdpcs	12, 7, cr10, cr14, cr3, {0}
  d4:	322e0a03 	eorcc	r0, lr, #12288	; 0x3000
  d8:	16033336 			; <UNDEFINED> instruction: 0x16033336
  dc:	2f2f2f2e 	svccs	0x002f2f2e
  e0:	31323130 	teqcc	r2, r0, lsr r1
  e4:	35323132 	ldrcc	r3, [r2, #-306]!	; 0x132
  e8:	0e033633 	mcreq	6, 0, r3, cr3, cr3, {1}
  ec:	03302f2e 	teqeq	r0, #46, 30	; 0xb8
  f0:	0d032e2f 	stceq	14, cr2, [r3, #-188]	; 0xffffff44
  f4:	2e09032e 	cdpcs	3, 0, cr0, cr9, cr14, {1}
  f8:	2f2e1703 	svccs	0x002e1703
  fc:	01000202 	tsteq	r0, r2, lsl #4
 100:	00009c01 	andeq	r9, r0, r1, lsl #24
 104:	37000200 	strcc	r0, [r0, -r0, lsl #4]
 108:	02000000 	andeq	r0, r0, #0
 10c:	0d0efb01 	vstreq	d15, [lr, #-4]
 110:	01010100 	mrseq	r0, (UNDEF: 17)
 114:	00000001 	andeq	r0, r0, r1
 118:	01000001 	tsteq	r0, r1
 11c:	6d656d00 	stclvs	13, cr6, [r5, #-0]
 120:	2e676663 	cdpcs	6, 6, cr6, cr7, cr3, {3}
 124:	00000063 	andeq	r0, r0, r3, rrx
 128:	6d656d00 	stclvs	13, cr6, [r5, #-0]
 12c:	2e676663 	cdpcs	6, 6, cr6, cr7, cr3, {3}
 130:	00000068 	andeq	r0, r0, r8, rrx
 134:	6e6f6300 	cdpvs	3, 6, cr6, cr15, cr0, {0}
 138:	2e676966 	cdpcs	9, 6, cr6, cr7, cr6, {3}
 13c:	00000068 	andeq	r0, r0, r8, rrx
 140:	05000000 	streq	r0, [r0, #-0]
 144:	0002dc02 	andeq	sp, r2, r2, lsl #24
 148:	0136030c 	teqeq	r6, ip, lsl #6
 14c:	2f2f4b14 	svccs	0x002f4b14
 150:	31326d2f 	teqcc	r2, pc, lsr #26
 154:	302a512b 	eorcc	r5, sl, fp, lsr #2
 158:	2f2f2d2f 	svccs	0x002f2d2f
 15c:	0b033030 	bleq	cc224 <SVC_stack_size+0xbc224>
 160:	2e0b034a 	cdpcs	3, 0, cr0, cr11, cr10, {2}
 164:	032e7503 	teqeq	lr, #12582912	; 0xc00000
 168:	0b032e0b 	bleq	cb99c <SVC_stack_size+0xbb99c>
 16c:	2f30302e 	svccs	0x0030302e
 170:	4b2a342f 	blmi	a8d234 <SVC_stack_size+0xa7d234>
 174:	2e0d0331 	mcrcs	3, 0, r0, cr13, cr1, {1}
 178:	032e1303 	teqeq	lr, #201326592	; 0xc000000
 17c:	09032e6d 	stmdbeq	r3, {r0, r2, r3, r5, r6, r9, sl, fp, sp}
 180:	2e0f032e 	cdpcs	3, 0, cr0, cr15, cr14, {1}
 184:	332e7103 	teqcc	lr, #-1073741824	; 0xc0000000
 188:	034a1303 	movteq	r1, #41731	; 0xa303
 18c:	32332e72 	eorscc	r2, r3, #1824	; 0x720
 190:	0c033633 	stceq	6, cr3, [r3], {51}	; 0x33
 194:	02002b4a 	andeq	r2, r0, #75776	; 0x12800
 198:	83310104 	teqhi	r1, #4, 2
 19c:	01001002 	tsteq	r0, r2
 1a0:	0001e601 	andeq	lr, r1, r1, lsl #12
 1a4:	1d000200 	sfmne	f0, 4, [r0, #-0]
 1a8:	02000000 	andeq	r0, r0, #0
 1ac:	0d0efb01 	vstreq	d15, [lr, #-4]
 1b0:	01010100 	mrseq	r0, (UNDEF: 17)
 1b4:	00000001 	andeq	r0, r0, r1
 1b8:	01000001 	tsteq	r0, r1
 1bc:	6e616e00 	cdpvs	14, 6, cr6, cr1, cr0, {0}
 1c0:	00632e64 	rsbeq	r2, r3, r4, ror #28
 1c4:	00000000 	andeq	r0, r0, r0
 1c8:	e4020500 	str	r0, [r2], #-1280	; 0x500
 1cc:	030c0003 	movweq	r0, #49155	; 0xc003
 1d0:	bd130110 	ldflts	f0, [r3, #-64]	; 0xffffffc0
 1d4:	8513bd13 	ldrhi	fp, [r3, #-3347]	; 0xd13
 1d8:	322f2c15 	eorcc	r2, pc, #5376	; 0x1500
 1dc:	322e7a03 	eorcc	r7, lr, #12288	; 0x3000
 1e0:	2f2f302d 	svccs	0x002f302d
 1e4:	2f2f2f2a 	svccs	0x002f2f2a
 1e8:	13682f2f 	cmnne	r8, #47, 30	; 0xbc
 1ec:	01040200 	mrseq	r0, R12_usr
 1f0:	67062e06 	strvs	r2, [r6, -r6, lsl #28]
 1f4:	0167034c 	cmneq	r7, ip, asr #6
 1f8:	034a1603 	movteq	r1, #42499	; 0xa603
 1fc:	03522e6a 	cmpeq	r2, #1696	; 0x6a0
 200:	6e034a0e 	vmlavs.f32	s8, s6, s28
 204:	9e1d0382 	cdpls	3, 1, cr0, cr13, cr2, {4}
 208:	03016703 	movweq	r6, #5891	; 0x1703
 20c:	5030661d 	eorspl	r6, r0, sp, lsl r6
 210:	342a1030 	strtcc	r1, [sl], #-48	; 0x30
 214:	03017a03 	movweq	r7, #6659	; 0x1a03
 218:	2d13820e 	lfmcs	f0, 1, [r3, #-56]	; 0xffffffc8
 21c:	6729332f 	strvs	r3, [r9, -pc, lsr #6]!
 220:	324b2933 	subcc	r2, fp, #835584	; 0xcc000
 224:	5b039f2a 	blpl	e7ed4 <SVC_stack_size+0xd7ed4>
 228:	2e25032e 	cdpcs	3, 2, cr0, cr5, cr14, {1}
 22c:	83676768 	cmnhi	r7, #104, 14	; 0x1a00000
 230:	7fbf0367 	svcvc	0x00bf0367
 234:	0e036e66 	cdpeq	14, 0, cr6, cr3, cr6, {3}
 238:	826e034a 	rsbhi	r0, lr, #671088641	; 0x28000001
 23c:	bf663f03 	svclt	0x00663f03
 240:	2e7fb803 	cdpcs	8, 7, cr11, cr15, cr3, {0}
 244:	2e00d003 	cdpcs	0, 0, cr13, cr0, cr3, {0}
 248:	2e7fb003 	cdpcs	0, 7, cr11, cr15, cr3, {0}
 24c:	2e00cc03 	cdpcs	12, 0, cr12, cr0, cr3, {0}
 250:	2e7fb403 	cdpcs	4, 7, cr11, cr15, cr3, {0}
 254:	4a00d003 	bmi	34268 <SVC_stack_size+0x24268>
 258:	667fb803 	ldrbtvs	fp, [pc], -r3, lsl #16
 25c:	4a00ca03 	bmi	32a70 <SVC_stack_size+0x22a70>
 260:	2e7fb603 	cdpcs	6, 7, cr11, cr15, cr3, {0}
 264:	2e00ca03 	vmlacs.f32	s24, s0, s6
 268:	2e7fb603 	cdpcs	6, 7, cr11, cr15, cr3, {0}
 26c:	032e0e03 	teqeq	lr, #3, 28	; 0x30
 270:	676600c0 	strbvs	r0, [r6, -r0, asr #1]!
 274:	004a7003 	subeq	r7, sl, r3
 278:	03020402 	movweq	r0, #9218	; 0x2402
 27c:	02002e11 	andeq	r2, r0, #272	; 0x110
 280:	03490204 	movteq	r0, #37380	; 0x9204
 284:	0b034a79 	bleq	d2c70 <SVC_stack_size+0xc2c70>
 288:	2e75032e 	cdpcs	3, 7, cr0, cr5, cr14, {1}
 28c:	2e7fb403 	cdpcs	4, 7, cr11, cr15, cr3, {0}
 290:	2e00dc03 	cdpcs	12, 0, cr13, cr0, cr3, {0}
 294:	2e7fa403 	cdpcs	4, 7, cr10, cr15, cr3, {0}
 298:	6600dc03 	strvs	sp, [r0], -r3, lsl #24
 29c:	9803334d 	stmdals	r3, {r0, r2, r3, r6, r8, r9, ip, sp}
 2a0:	e903017f 	stmdb	r3, {r0, r1, r2, r3, r4, r5, r6, r8}
 2a4:	97032e00 	strls	r2, [r3, -r0, lsl #28]
 2a8:	f0032e7f 			; <UNDEFINED> instruction: 0xf0032e7f
 2ac:	78032e00 	stmdavc	r3, {r9, sl, fp, sp}
 2b0:	7f98032e 	svcvc	0x0098032e
 2b4:	00ef032e 	rsceq	r0, pc, lr, lsr #6
 2b8:	98032f2e 	stmdals	r3, {r1, r2, r3, r5, r8, r9, sl, fp, sp}
 2bc:	78032e7f 	stmdavc	r3, {r0, r1, r2, r3, r4, r5, r6, r9, sl, fp, sp}
 2c0:	00f1032e 	rscseq	r0, r1, lr, lsr #6
 2c4:	7f97032e 	svcvc	0x0097032e
 2c8:	00e7032e 	rsceq	r0, r7, lr, lsr #6
 2cc:	98032f2e 	stmdals	r3, {r1, r2, r3, r5, r8, r9, sl, fp, sp}
 2d0:	e9032e7f 	stmdb	r3, {r0, r1, r2, r3, r4, r5, r6, r9, sl, fp, sp}
 2d4:	a5032e00 	strge	r2, [r3, #-3584]	; 0xe00
 2d8:	72032e7f 	andvc	r2, r3, #2032	; 0x7f0
 2dc:	2e0e032e 	cdpcs	3, 0, cr0, cr14, cr14, {1}
 2e0:	8200de03 	andhi	sp, r0, #3, 28	; 0x30
 2e4:	2e7f9003 	cdpcs	0, 7, cr9, cr15, cr3, {0}
 2e8:	9e00f803 	cdpls	8, 0, cr15, cr0, cr3, {0}
 2ec:	2e7f8403 	cdpcs	4, 7, cr8, cr15, cr3, {0}
 2f0:	2e00ff03 	cdpcs	15, 0, cr15, cr0, cr3, {0}
 2f4:	2e7f8103 	expcse	f0, f3
 2f8:	2e018203 	cdpcs	2, 0, cr8, cr1, cr3, {0}
 2fc:	2e7efe03 	cdpcs	14, 7, cr15, cr14, cr3, {0}
 300:	2e00fc03 	cdpcs	12, 0, cr15, cr0, cr3, {0}
 304:	7f810331 	svcvc	0x00810331
 308:	0182032e 	orreq	r0, r2, lr, lsr #6
 30c:	032a322e 	teqeq	sl, #-536870910	; 0xe0000002
 310:	034a7f86 	movteq	r7, #44934	; 0xaf86
 314:	032e00fd 	teqeq	lr, #253	; 0xfd
 318:	032e7f83 	teqeq	lr, #524	; 0x20c
 31c:	2f2e00fd 	svccs	0x002e00fd
 320:	02040200 	andeq	r0, r4, #0, 4
 324:	02004a06 	andeq	r4, r0, #24576	; 0x6000
 328:	68060204 	stmdavs	r6, {r2, r9}
 32c:	02040200 	andeq	r0, r4, #0, 4
 330:	004a7303 	subeq	r7, sl, r3, lsl #6
 334:	03020402 	movweq	r0, #9218	; 0x2402
 338:	02002e0b 	andeq	r2, r0, #11, 28	; 0xb0
 33c:	00bc0204 	adcseq	r0, ip, r4, lsl #4
 340:	03020402 	movweq	r0, #9218	; 0x2402
 344:	02002e73 	andeq	r2, r0, #1840	; 0x730
 348:	0b030204 	bleq	c0b60 <SVC_stack_size+0xb0b60>
 34c:	8003302e 	andhi	r3, r3, lr, lsr #32
 350:	0e032e7f 	mcreq	14, 0, r2, cr3, cr15, {3}
 354:	00f7034a 	rscseq	r0, r7, sl, asr #6
 358:	2e750366 	cdpcs	3, 7, cr0, cr5, cr6, {3}
 35c:	032e0c03 	teqeq	lr, #768	; 0x300
 360:	82032e74 	andhi	r2, r3, #116, 28	; 0x740
 364:	8f032e7f 	svchi	0x00032e7f
 368:	2f2ed601 	svccs	0x002ed601
 36c:	62846733 	addvs	r6, r4, #13369344	; 0xcc0000
 370:	4d2d6752 	stcmi	7, cr6, [sp, #-328]!	; 0xfffffeb8
 374:	0b034b2e 	bleq	d3034 <SVC_stack_size+0xc3034>
 378:	6284672e 	addvs	r6, r4, #12058624	; 0xb80000
 37c:	312d6752 	teqcc	sp, r2, asr r7
 380:	2d674c14 	stclcs	12, cr4, [r7, #-80]!	; 0xffffffb0
 384:	04022d4b 	streq	r2, [r2], #-3403	; 0xd4b
 388:	a0010100 	andge	r0, r1, r0, lsl #2
 38c:	02000000 	andeq	r0, r0, #0
 390:	00004900 	andeq	r4, r0, r0, lsl #18
 394:	fb010200 	blx	40b9e <SVC_stack_size+0x30b9e>
 398:	01000d0e 	tsteq	r0, lr, lsl #26
 39c:	00010101 	andeq	r0, r1, r1, lsl #2
 3a0:	00010000 	andeq	r0, r1, r0
 3a4:	75000100 	strvc	r0, [r0, #-256]	; 0x100
 3a8:	2e747261 	cdpcs	2, 7, cr7, cr4, cr1, {3}
 3ac:	00000063 	andeq	r0, r0, r3, rrx
 3b0:	6e6f6300 	cdpvs	3, 6, cr6, cr15, cr0, {0}
 3b4:	2e676966 	cdpcs	9, 6, cr6, cr7, cr6, {3}
 3b8:	00000068 	andeq	r0, r0, r8, rrx
 3bc:	69706700 	ldmdbvs	r0!, {r8, r9, sl, sp, lr}^
 3c0:	00682e6f 	rsbeq	r2, r8, pc, ror #28
 3c4:	73000000 	movwvc	r0, #0
 3c8:	6f637379 	svcvs	0x00637379
 3cc:	00682e6e 	rsbeq	r2, r8, lr, ror #28
 3d0:	75000000 	strvc	r0, [r0, #-0]
 3d4:	2e747261 	cdpcs	2, 7, cr7, cr4, cr1, {3}
 3d8:	00000068 	andeq	r0, r0, r8, rrx
 3dc:	05000000 	streq	r0, [r0, #-0]
 3e0:	00088c02 	andeq	r8, r8, r2, lsl #24
 3e4:	011c030c 	tsteq	ip, ip, lsl #6
 3e8:	304b2f4e 	subcc	r2, fp, lr, asr #30
 3ec:	3067144c 	rsbcc	r1, r7, ip, asr #8
 3f0:	69322d2f 	ldmdbvs	r2!, {r0, r1, r2, r3, r5, r8, sl, fp, sp}
 3f4:	6d842f4e 	stcvs	15, cr2, [r4, #312]	; 0x138
 3f8:	9e740314 	mrcls	3, 3, r0, cr4, cr4, {0}
 3fc:	0903842f 	stmdbeq	r3, {r0, r1, r2, r3, r5, sl, pc}
 400:	9e0c032e 	cdpls	3, 0, cr0, cr12, cr14, {1}
 404:	03352c16 	teqeq	r5, #5632	; 0x1600
 408:	2f352e7a 	svccs	0x00352e7a
 40c:	67672f2f 	strbvs	r2, [r7, -pc, lsr #30]!
 410:	2f2f6769 	svccs	0x002f6769
 414:	4b4b312f 	blmi	12cc8d8 <R1_VE+0x2cc8d8>
 418:	034b4b4b 	movteq	r4, #47947	; 0xbb4b
 41c:	034b4a64 	movteq	r4, #47716	; 0xba64
 420:	62032e1e 	andvs	r2, r3, #480	; 0x1e0
 424:	1b032f2e 	blne	cc0e4 <SVC_stack_size+0xbc0e4>
 428:	1002304a 	andne	r3, r2, sl, asr #32
 42c:	ae010100 	adfges	f0, f1, f0
 430:	02000000 	andeq	r0, r0, #0
 434:	00004700 	andeq	r4, r0, r0, lsl #14
 438:	fb010200 	blx	40c42 <SVC_stack_size+0x30c42>
 43c:	01000d0e 	tsteq	r0, lr, lsl #26
 440:	00010101 	andeq	r0, r1, r1, lsl #2
 444:	00010000 	andeq	r0, r1, r0
 448:	6d000100 	stfvss	f0, [r0, #-0]
 44c:	2e6e6961 	cdpcs	9, 6, cr6, cr14, cr1, {3}
 450:	00000063 	andeq	r0, r0, r3, rrx
 454:	6e6f6300 	cdpvs	3, 6, cr6, cr15, cr0, {0}
 458:	2e676966 	cdpcs	9, 6, cr6, cr7, cr6, {3}
 45c:	00000068 	andeq	r0, r0, r8, rrx
 460:	69706700 	ldmdbvs	r0!, {r8, r9, sl, sp, lr}^
 464:	00682e6f 	rsbeq	r2, r8, pc, ror #28
 468:	75000000 	strvc	r0, [r0, #-0]
 46c:	2e747261 	cdpcs	2, 7, cr7, cr4, cr1, {3}
 470:	00000068 	andeq	r0, r0, r8, rrx
 474:	6e616e00 	cdpvs	14, 6, cr6, cr1, cr0, {0}
 478:	00682e64 	rsbeq	r2, r8, r4, ror #28
 47c:	00000000 	andeq	r0, r0, r0
 480:	08020500 	stmdaeq	r2, {r8, sl}
 484:	030c000a 	movweq	r0, #49162	; 0xc00a
 488:	4d660110 	stfmie	f0, [r6, #-64]!	; 0xffffffc0
 48c:	1803874c 	stmdane	r3, {r2, r3, r6, r8, r9, sl, pc}
 490:	4a6803f2 	bmi	1a01460 <R1_VE+0xa01460>
 494:	034a1603 	movteq	r1, #42499	; 0xa603
 498:	2f2f4a6e 	svccs	0x002f4a6e
 49c:	02040200 	andeq	r0, r4, #0, 4
 4a0:	0402002f 	streq	r0, [r2], #-47	; 0x2f
 4a4:	2f684902 	svccs	0x00684902
 4a8:	01000602 	tsteq	r0, r2, lsl #12
 4ac:	02050001 	andeq	r0, r5, #1
 4b0:	0c000a9c 	stceq	10, cr0, [r0], {156}	; 0x9c
 4b4:	03013403 	movweq	r3, #5123	; 0x1403
 4b8:	032f2e0c 	teqeq	pc, #12, 28	; 0xc0
 4bc:	0030661f 	eorseq	r6, r0, pc, lsl r6
 4c0:	06020402 	streq	r0, [r2], -r2, lsl #8
 4c4:	0402002e 	streq	r0, [r2], #-46	; 0x2e
 4c8:	032c0602 	teqeq	ip, #2097152	; 0x200000
 4cc:	4e4b4a09 	vmlami.f32	s9, s22, s18
 4d0:	854b864b 	strbhi	r8, [fp, #-1611]	; 0x64b
 4d4:	4c4b2d4b 	mcrrmi	13, 4, r2, fp, cr11
 4d8:	6a660903 	bvs	19828ec <R1_VE+0x9828ec>
 4dc:	01001c02 	tsteq	r0, r2, lsl #24
 4e0:	Address 0x000004e0 is out of bounds.


Disassembly of section .debug_info:

00000000 <.debug_info>:
       0:	0000005e 	andeq	r0, r0, lr, asr r0
       4:	00000002 	andeq	r0, r0, r2
       8:	01040000 	mrseq	r0, (UNDEF: 4)
       c:	00000000 	andeq	r0, r0, r0
      10:	0c000000 	stceq	0, cr0, [r0], {-0}
      14:	0c0002dc 	sfmeq	f0, 4, [r0], {220}	; 0xdc
      18:	74696e69 	strbtvc	r6, [r9], #-3689	; 0xe69
      1c:	2e757063 	cdpcs	0, 7, cr7, cr5, cr3, {3}
      20:	3a650053 	bcc	1940174 <R1_VE+0x940174>
      24:	6f77415c 	svcvs	0x0077415c
      28:	455c6b72 	ldrbmi	r6, [ip, #-2930]	; 0xb72
      2c:	70696c63 	rsbvc	r6, r9, r3, ror #24
      30:	6f576573 	svcvs	0x00576573
      34:	70736b72 	rsbsvc	r6, r3, r2, ror fp
      38:	5c656361 	stclpl	3, cr6, [r5], #-388	; 0xfffffe7c
      3c:	6f626473 	svcvs	0x00626473
      40:	3436746f 	ldrtcc	r7, [r6], #-1135	; 0x46f
      44:	645c3031 	ldrbvs	r3, [ip], #-49	; 0x31
      48:	736f796a 	cmnvc	pc, #1736704	; 0x1a8000
      4c:	726f705c 	rsbvc	r7, pc, #92	; 0x5c
      50:	4e470074 	mcrmi	0, 2, r0, cr7, cr4, {3}
      54:	53412055 	movtpl	r2, #4181	; 0x1055
      58:	322e3220 	eorcc	r3, lr, #32, 4
      5c:	00312e33 	eorseq	r2, r1, r3, lsr lr
      60:	044a8001 	strbeq	r8, [sl], #-1
      64:	00020000 	andeq	r0, r2, r0
      68:	00000014 	andeq	r0, r0, r4, lsl r0
      6c:	02030104 	andeq	r0, r3, #4, 2
      70:	37010000 	strcc	r0, [r1, -r0]
      74:	61000002 	tstvs	r0, r2
      78:	dc000001 	stcle	0, cr0, [r0], {1}
      7c:	e40c0002 	str	r0, [ip], #-2
      80:	010c0003 	tsteq	ip, r3
      84:	02000001 	andeq	r0, r0, #1
      88:	012f0708 	teqeq	pc, r8, lsl #14
      8c:	08020000 	stmdaeq	r2, {}	; <UNPREDICTABLE>
      90:	0001c405 	andeq	ip, r1, r5, lsl #8
      94:	02460300 	subeq	r0, r6, #0, 6
      98:	2d030000 	stccs	0, cr0, [r3, #-0]
      9c:	0000003e 	andeq	r0, r0, lr, lsr r0
      a0:	39070402 	stmdbcc	r7, {r1, sl}
      a4:	02000001 	andeq	r0, r0, #1
      a8:	00b60702 	adcseq	r0, r6, r2, lsl #14
      ac:	04040000 	streq	r0, [r4], #-0
      b0:	746e6905 	strbtvc	r6, [lr], #-2309	; 0x905
      b4:	05020200 	streq	r0, [r2, #-512]	; 0x200
      b8:	0000022d 	andeq	r0, r0, sp, lsr #4
      bc:	a3080102 	movwge	r0, #33026	; 0x8102
      c0:	02000000 	andeq	r0, r0, #0
      c4:	00a50601 	adceq	r0, r5, r1, lsl #12
      c8:	2a050000 	bcs	1400d0 <SVC_stack_size+0x1300d0>
      cc:	08000000 	stmdaeq	r0, {}	; <UNPREDICTABLE>
      d0:	e61a0203 	ldr	r0, [sl], -r3, lsl #4
      d4:	06000002 	streq	r0, [r0], -r2
      d8:	000000c9 	andeq	r0, r0, r9, asr #1
      dc:	00331c02 	eorseq	r1, r3, r2, lsl #24
      e0:	23020000 	movwcs	r0, #8192	; 0x2000
      e4:	009b0600 	addseq	r0, fp, r0, lsl #12
      e8:	1d020000 	stcne	0, cr0, [r2, #-0]
      ec:	00000033 	andeq	r0, r0, r3, lsr r0
      f0:	06042302 	streq	r2, [r4], -r2, lsl #6
      f4:	00000005 	andeq	r0, r0, r5
      f8:	00331e02 	eorseq	r1, r3, r2, lsl #28
      fc:	23020000 	movwcs	r0, #8192	; 0x2000
     100:	00da0608 	sbcseq	r0, sl, r8, lsl #12
     104:	1f020000 	svcne	0x00020000
     108:	00000033 	andeq	r0, r0, r3, lsr r0
     10c:	060c2302 	streq	r2, [ip], -r2, lsl #6
     110:	00000114 	andeq	r0, r0, r4, lsl r1
     114:	00332002 	eorseq	r2, r3, r2
     118:	23020000 	movwcs	r0, #8192	; 0x2000
     11c:	005a0610 	subseq	r0, sl, r0, lsl r6
     120:	21020000 	mrscs	r0, (UNDEF: 2)
     124:	00000033 	andeq	r0, r0, r3, lsr r0
     128:	06142302 	ldreq	r2, [r4], -r2, lsl #6
     12c:	0000024f 	andeq	r0, r0, pc, asr #4
     130:	00332202 	eorseq	r2, r3, r2, lsl #4
     134:	23020000 	movwcs	r0, #8192	; 0x2000
     138:	00210618 	eoreq	r0, r1, r8, lsl r6
     13c:	23020000 	movwcs	r0, #8192	; 0x2000
     140:	00000033 	andeq	r0, r0, r3, lsr r0
     144:	061c2302 	ldreq	r2, [ip], -r2, lsl #6
     148:	0000026f 	andeq	r0, r0, pc, ror #4
     14c:	00332402 	eorseq	r2, r3, r2, lsl #8
     150:	23020000 	movwcs	r0, #8192	; 0x2000
     154:	00000620 	andeq	r0, r0, r0, lsr #12
     158:	25020000 	strcs	r0, [r2, #-0]
     15c:	00000033 	andeq	r0, r0, r3, lsr r0
     160:	06242302 	strteq	r2, [r4], -r2, lsl #6
     164:	00000240 	andeq	r0, r0, r0, asr #4
     168:	00332602 	eorseq	r2, r3, r2, lsl #12
     16c:	23020000 	movwcs	r0, #8192	; 0x2000
     170:	00ea0628 	rsceq	r0, sl, r8, lsr #12
     174:	27020000 	strcs	r0, [r2, -r0]
     178:	00000033 	andeq	r0, r0, r3, lsr r0
     17c:	062c2302 	strteq	r2, [ip], -r2, lsl #6
     180:	00000055 	andeq	r0, r0, r5, asr r0
     184:	00332802 	eorseq	r2, r3, r2, lsl #16
     188:	23020000 	movwcs	r0, #8192	; 0x2000
     18c:	020f0630 	andeq	r0, pc, #48, 12	; 0x3000000
     190:	29020000 	stmdbcs	r2, {}	; <UNPREDICTABLE>
     194:	00000033 	andeq	r0, r0, r3, lsr r0
     198:	06342302 	ldrteq	r2, [r4], -r2, lsl #6
     19c:	00000087 	andeq	r0, r0, r7, lsl #1
     1a0:	00332a02 	eorseq	r2, r3, r2, lsl #20
     1a4:	23020000 	movwcs	r0, #8192	; 0x2000
     1a8:	019a0638 	orrseq	r0, sl, r8, lsr r6
     1ac:	2b020000 	blcs	801b4 <SVC_stack_size+0x701b4>
     1b0:	00000033 	andeq	r0, r0, r3, lsr r0
     1b4:	063c2302 	ldrteq	r2, [ip], -r2, lsl #6
     1b8:	00000096 	muleq	r0, r6, r0
     1bc:	00332c02 	eorseq	r2, r3, r2, lsl #24
     1c0:	23020000 	movwcs	r0, #8192	; 0x2000
     1c4:	01060640 	tsteq	r6, r0, asr #12
     1c8:	2d020000 	stccs	0, cr0, [r2, #-0]
     1cc:	00000033 	andeq	r0, r0, r3, lsr r0
     1d0:	06442302 	strbeq	r2, [r4], -r2, lsl #6
     1d4:	00000269 	andeq	r0, r0, r9, ror #4
     1d8:	00332e02 	eorseq	r2, r3, r2, lsl #28
     1dc:	23020000 	movwcs	r0, #8192	; 0x2000
     1e0:	00190648 	andseq	r0, r9, r8, asr #12
     1e4:	2f020000 	svccs	0x00020000
     1e8:	00000033 	andeq	r0, r0, r3, lsr r0
     1ec:	064c2302 	strbeq	r2, [ip], -r2, lsl #6
     1f0:	0000027f 	andeq	r0, r0, pc, ror r2
     1f4:	02e63002 	rsceq	r3, r6, #2
     1f8:	23020000 	movwcs	r0, #8192	; 0x2000
     1fc:	00e10650 	rsceq	r0, r1, r0, asr r6
     200:	31020000 	mrscc	r0, (UNDEF: 2)
     204:	00000033 	andeq	r0, r0, r3, lsr r0
     208:	02802303 	addeq	r2, r0, #201326592	; 0xc000000
     20c:	00019106 	andeq	r9, r1, r6, lsl #2
     210:	33320200 	teqcc	r2, #0, 4
     214:	03000000 	movweq	r0, #0
     218:	06028423 	streq	r8, [r2], -r3, lsr #8
     21c:	0000029d 	muleq	r0, sp, r2
     220:	00333302 	eorseq	r3, r3, r2, lsl #6
     224:	23030000 	movwcs	r0, #12288	; 0x3000
     228:	61060288 	smlabbvs	r6, r8, r2, r0
     22c:	02000000 	andeq	r0, r0, #0
     230:	00003334 	andeq	r3, r0, r4, lsr r3
     234:	8c230300 	stchi	3, cr0, [r3], #-0
     238:	00d10602 	sbcseq	r0, r1, r2, lsl #12
     23c:	35020000 	strcc	r0, [r2, #-0]
     240:	00000033 	andeq	r0, r0, r3, lsr r0
     244:	02902303 	addseq	r2, r0, #201326592	; 0xc000000
     248:	00015806 	andeq	r5, r1, r6, lsl #16
     24c:	33360200 	teqcc	r6, #0, 4
     250:	03000000 	movweq	r0, #0
     254:	06029423 	streq	r9, [r2], -r3, lsr #8
     258:	00000256 	andeq	r0, r0, r6, asr r2
     25c:	00333702 	eorseq	r3, r3, r2, lsl #14
     260:	23030000 	movwcs	r0, #12288	; 0x3000
     264:	a6060298 			; <UNDEFINED> instruction: 0xa6060298
     268:	02000002 	andeq	r0, r0, #2
     26c:	00003338 	andeq	r3, r0, r8, lsr r3
     270:	9c230300 	stcls	3, cr0, [r3], #-0
     274:	006a0602 	rsbeq	r0, sl, r2, lsl #12
     278:	39020000 	stmdbcc	r2, {}	; <UNPREDICTABLE>
     27c:	00000033 	andeq	r0, r0, r3, lsr r0
     280:	02a02303 	adceq	r2, r0, #201326592	; 0xc000000
     284:	00014606 	andeq	r4, r1, r6, lsl #12
     288:	333a0200 	teqcc	sl, #0, 4
     28c:	03000000 	movweq	r0, #0
     290:	0602a423 	streq	sl, [r2], -r3, lsr #8
     294:	000001e6 	andeq	r0, r0, r6, ror #3
     298:	00333b02 	eorseq	r3, r3, r2, lsl #22
     29c:	23030000 	movwcs	r0, #12288	; 0x3000
     2a0:	5f0602a8 	svcpl	0x000602a8
     2a4:	02000002 	andeq	r0, r0, #2
     2a8:	0000333c 	andeq	r3, r0, ip, lsr r3
     2ac:	ac230300 	stcge	3, cr0, [r3], #-0
     2b0:	007d0602 	rsbseq	r0, sp, r2, lsl #12
     2b4:	3d020000 	stccc	0, cr0, [r2, #-0]
     2b8:	00000033 	andeq	r0, r0, r3, lsr r0
     2bc:	02b02303 	adcseq	r2, r0, #201326592	; 0xc000000
     2c0:	0000f006 	andeq	pc, r0, r6
     2c4:	333e0200 	teqcc	lr, #0, 4
     2c8:	03000000 	movweq	r0, #0
     2cc:	0602b423 	streq	fp, [r2], -r3, lsr #8
     2d0:	0000011c 	andeq	r0, r0, ip, lsl r1
     2d4:	00333f02 	eorseq	r3, r3, r2, lsl #30
     2d8:	23030000 	movwcs	r0, #12288	; 0x3000
     2dc:	930602b8 	movwls	r0, #25272	; 0x62b8
     2e0:	02000002 	andeq	r0, r0, #2
     2e4:	00003340 	andeq	r3, r0, r0, asr #6
     2e8:	bc230300 	stclt	3, cr0, [r3], #-0
     2ec:	02890602 	addeq	r0, r9, #2097152	; 0x200000
     2f0:	41020000 	mrsmi	r0, (UNDEF: 2)
     2f4:	000002fd 	strdeq	r0, [r0], -sp
     2f8:	02c02303 	sbceq	r2, r0, #201326592	; 0xc000000
     2fc:	0001db06 	andeq	sp, r1, r6, lsl #22
     300:	33420200 	movtcc	r0, #8704	; 0x2200
     304:	03000000 	movweq	r0, #0
     308:	06048023 	streq	r8, [r4], -r3, lsr #32
     30c:	00000033 	andeq	r0, r0, r3, lsr r0
     310:	00334302 	eorseq	r4, r3, r2, lsl #6
     314:	23030000 	movwcs	r0, #12288	; 0x3000
     318:	f9060484 			; <UNDEFINED> instruction: 0xf9060484
     31c:	02000001 	andeq	r0, r0, #1
     320:	00030d44 	andeq	r0, r3, r4, asr #26
     324:	88230300 	stmdahi	r3!, {r8, r9}
     328:	000f0604 	andeq	r0, pc, r4, lsl #12
     32c:	45020000 	strmi	r0, [r2, #-0]
     330:	00000033 	andeq	r0, r0, r3, lsr r0
     334:	06802303 	streq	r2, [r0], r3, lsl #6
     338:	0001d206 	andeq	sp, r1, r6, lsl #4
     33c:	33460200 	movtcc	r0, #25088	; 0x6200
     340:	03000000 	movweq	r0, #0
     344:	00068423 	andeq	r8, r6, r3, lsr #8
     348:	00003307 	andeq	r3, r0, r7, lsl #6
     34c:	0002f600 	andeq	pc, r2, r0, lsl #12
     350:	02f60800 	rscseq	r0, r6, #0, 16
     354:	002b0000 	eoreq	r0, fp, r0
     358:	bb070402 	bllt	1c1368 <SVC_stack_size+0x1b1368>
     35c:	07000001 	streq	r0, [r0, -r1]
     360:	00000033 	andeq	r0, r0, r3, lsr r0
     364:	0000030d 	andeq	r0, r0, sp, lsl #6
     368:	0002f608 	andeq	pc, r2, r8, lsl #12
     36c:	07002f00 	streq	r2, [r0, -r0, lsl #30]
     370:	00000033 	andeq	r0, r0, r3, lsr r0
     374:	0000031d 	andeq	r0, r0, sp, lsl r3
     378:	0002f608 	andeq	pc, r2, r8, lsl #12
     37c:	09003d00 	stmdbeq	r0, {r8, sl, fp, ip, sp}
     380:	000000fd 	strdeq	r0, [r0], -sp
     384:	8c49021c 	sfmhi	f0, 2, [r9], {28}
     388:	06000003 	streq	r0, [r0], -r3
     38c:	0000010c 	andeq	r0, r0, ip, lsl #2
     390:	00334b02 	eorseq	r4, r3, r2, lsl #22
     394:	23020000 	movwcs	r0, #8192	; 0x2000
     398:	01a90600 			; <UNDEFINED> instruction: 0x01a90600
     39c:	4c020000 	stcmi	0, cr0, [r2], {-0}
     3a0:	00000033 	andeq	r0, r0, r3, lsr r0
     3a4:	06042302 	streq	r2, [r4], -r2, lsl #6
     3a8:	0000014f 	andeq	r0, r0, pc, asr #2
     3ac:	00334d02 	eorseq	r4, r3, r2, lsl #26
     3b0:	23020000 	movwcs	r0, #8192	; 0x2000
     3b4:	01b20608 			; <UNDEFINED> instruction: 0x01b20608
     3b8:	4e020000 	cdpmi	0, 0, cr0, cr2, cr0, {0}
     3bc:	00000033 	andeq	r0, r0, r3, lsr r0
     3c0:	060c2302 	streq	r2, [ip], -r2, lsl #6
     3c4:	000001a0 	andeq	r0, r0, r0, lsr #3
     3c8:	00334f02 	eorseq	r4, r3, r2, lsl #30
     3cc:	23020000 	movwcs	r0, #8192	; 0x2000
     3d0:	01f00610 	mvnseq	r0, r0, lsl r6
     3d4:	50020000 	andpl	r0, r2, r0
     3d8:	00000033 	andeq	r0, r0, r3, lsr r0
     3dc:	06142302 	ldreq	r2, [r4], -r2, lsl #6
     3e0:	00000224 	andeq	r0, r0, r4, lsr #4
     3e4:	00335102 	eorseq	r5, r3, r2, lsl #2
     3e8:	23020000 	movwcs	r0, #8192	; 0x2000
     3ec:	010a0018 	tsteq	sl, r8, lsl r0
     3f0:	0000003e 	andeq	r0, r0, lr, lsr r0
     3f4:	dc013601 	stcle	6, cr3, [r1], {1}
     3f8:	fc0c0002 	stc2	0, cr0, [ip], {2}
     3fc:	020c0002 	andeq	r0, ip, #2
     400:	b501007d 	strlt	r0, [r1, #-125]	; 0x7d
     404:	0b000003 	bleq	418 <apll_mdiv+0x30e>
     408:	000000b1 	strheq	r0, [r0], -r1
     40c:	00333801 	eorseq	r3, r3, r1, lsl #16
     410:	00000000 	andeq	r0, r0, r0
     414:	0c000000 	stceq	0, cr0, [r0], {-0}
     418:	00027501 	andeq	r7, r2, r1, lsl #10
     41c:	01430100 	mrseq	r0, (UNDEF: 83)
     420:	0c0002fc 	sfmeq	f0, 4, [r0], {252}	; 0xfc
     424:	0c0003e4 	stceq	3, cr0, [r0], {228}	; 0xe4
     428:	0000001f 	andeq	r0, r0, pc, lsl r0
     42c:	00040f01 	andeq	r0, r4, r1, lsl #30
     430:	004c0d00 	subeq	r0, ip, r0, lsl #26
     434:	45010000 	strmi	r0, [r1, #-0]
     438:	00000033 	andeq	r0, r0, r3, lsr r0
     43c:	02150b0c 	andseq	r0, r5, #12, 22	; 0x3000
     440:	45010000 	strmi	r0, [r1, #-0]
     444:	00000033 	andeq	r0, r0, r3, lsr r0
     448:	0000003f 	andeq	r0, r0, pc, lsr r0
     44c:	0000730d 	andeq	r7, r0, sp, lsl #6
     450:	33450100 	movtcc	r0, #20736	; 0x5100
     454:	4b000000 	blmi	45c <apll_mdiv+0x352>
     458:	0001260d 	andeq	r2, r1, sp, lsl #12
     45c:	33450100 	movtcc	r0, #20736	; 0x5100
     460:	0c000000 	stceq	0, cr0, [r0], {-0}
     464:	00008c0d 	andeq	r8, r0, sp, lsl #24
     468:	33450100 	movtcc	r0, #20736	; 0x5100
     46c:	10000000 	andne	r0, r0, r0
     470:	00270e00 	eoreq	r0, r7, r0, lsl #28
     474:	33010000 	movwcc	r0, #4096	; 0x1000
     478:	0000041e 	andeq	r0, r0, lr, lsl r4
     47c:	7e001000 	cdpvc	0, 0, cr1, cr0, cr0, {0}
     480:	0004230f 	andeq	r2, r4, pc, lsl #6
     484:	29041000 	stmdbcs	r4, {ip}
     488:	11000004 	tstne	r0, r4
     48c:	00000068 	andeq	r0, r0, r8, rrx
     490:	0000fa0e 	andeq	pc, r0, lr, lsl #20
     494:	3d340100 	ldfccs	f0, [r4, #-0]
     498:	00000004 	andeq	r0, r0, r4
     49c:	0f700000 	svceq	0x00700000
     4a0:	00000442 	andeq	r0, r0, r2, asr #8
     4a4:	04480410 	strbeq	r0, [r8], #-1040	; 0x410
     4a8:	1d110000 	ldcne	0, cr0, [r1, #-0]
     4ac:	00000003 	andeq	r0, r0, r3
     4b0:	00000717 	andeq	r0, r0, r7, lsl r7
     4b4:	01020002 	tsteq	r2, r2
     4b8:	01040000 	mrseq	r0, (UNDEF: 4)
     4bc:	00000203 	andeq	r0, r0, r3, lsl #4
     4c0:	0002f101 	andeq	pc, r2, r1, lsl #2
     4c4:	00016100 	andeq	r6, r1, r0, lsl #2
     4c8:	0003e400 	andeq	lr, r3, r0, lsl #8
     4cc:	00088c0c 	andeq	r8, r8, ip, lsl #24
     4d0:	0001a10c 	andeq	sl, r1, ip, lsl #2
     4d4:	70010200 	andvc	r0, r1, r0, lsl #4
     4d8:	01000003 	tsteq	r0, r3
     4dc:	01030111 	tsteq	r3, r1, lsl r1
     4e0:	000003af 	andeq	r0, r0, pc, lsr #7
     4e4:	01011901 	tsteq	r1, r1, lsl #18
     4e8:	00000048 	andeq	r0, r0, r8, asr #32
     4ec:	646d6304 	strbtvs	r6, [sp], #-772	; 0x304
     4f0:	48190100 	ldmdami	r9, {r8}
     4f4:	00000000 	andeq	r0, r0, r0
     4f8:	a3080105 	movwge	r0, #33029	; 0x8105
     4fc:	02000000 	andeq	r0, r0, #0
     500:	00035001 	andeq	r5, r3, r1
     504:	01270100 	teqeq	r7, r0, lsl #2
     508:	03a10102 			; <UNDEFINED> instruction: 0x03a10102
     50c:	15010000 	strne	r0, [r1, #-0]
     510:	19010201 	stmdbne	r1, {r0, r9}
     514:	01000003 	tsteq	r0, r3
     518:	2506012b 	strcs	r0, [r6, #-299]	; 0x12b
     51c:	e4000000 	str	r0, [r0], #-0
     520:	fc0c0003 	stc2	0, cr0, [ip], {3}
     524:	020c0003 	andeq	r0, ip, #3
     528:	0601007d 			; <UNDEFINED> instruction: 0x0601007d
     52c:	00000058 	andeq	r0, r0, r8, asr r0
     530:	0c0003fc 	stceq	3, cr0, [r0], {252}	; 0xfc
     534:	0c000414 	cfstrseq	mvf0, [r0], {20}
     538:	01007d02 	tsteq	r0, r2, lsl #26
     53c:	00002e07 	andeq	r2, r0, r7, lsl #28
     540:	00041400 	andeq	r1, r4, r0, lsl #8
     544:	0004240c 	andeq	r2, r4, ip, lsl #8
     548:	007d020c 	rsbseq	r0, sp, ip, lsl #4
     54c:	0000a901 	andeq	sl, r0, r1, lsl #18
     550:	003c0800 	eorseq	r0, ip, r0, lsl #16
     554:	50010000 	andpl	r0, r1, r0
     558:	e7010900 	str	r0, [r1, -r0, lsl #18]
     55c:	01000002 	tsteq	r0, r2
     560:	0424011d 	strteq	r0, [r4], #-285	; 0x11d
     564:	046c0c00 	strbteq	r0, [ip], #-3072	; 0xc00
     568:	006b0c00 	rsbeq	r0, fp, r0, lsl #24
     56c:	f1010000 	setend	le
     570:	0a000000 	beq	578 <apll_mdiv+0x46e>
     574:	000002ec 	andeq	r0, r0, ip, ror #5
     578:	00f11d01 	rscseq	r1, r1, r1, lsl #26
     57c:	008b0000 	addeq	r0, fp, r0
     580:	720b0000 	andvc	r0, fp, #0
     584:	0100776f 	tsteq	r0, pc, ror #14
     588:	0000f11e 	andeq	pc, r0, lr, lsl r1	; <UNPREDICTABLE>
     58c:	0000ac00 	andeq	sl, r0, r0, lsl #24
     590:	03490c00 	movteq	r0, #39936	; 0x9c00
     594:	1f010000 	svcne	0x00010000
     598:	000000f1 	strdeq	r0, [r0], -r1
     59c:	000000de 	ldrdeq	r0, [r0], -lr
     5a0:	07040500 	streq	r0, [r4, -r0, lsl #10]
     5a4:	00000134 	andeq	r0, r0, r4, lsr r1
     5a8:	00004f06 	andeq	r4, r0, r6, lsl #30
     5ac:	00046c00 	andeq	r6, r4, r0, lsl #24
     5b0:	0004840c 	andeq	r8, r4, ip, lsl #8
     5b4:	007d020c 	rsbseq	r0, sp, ip, lsl #4
     5b8:	00610701 	rsbeq	r0, r1, r1, lsl #14
     5bc:	04840000 	streq	r0, [r4], #0
     5c0:	04c40c00 	strbeq	r0, [r4], #3072	; 0xc00
     5c4:	7d020c00 	stcvc	12, cr0, [r2, #-0]
     5c8:	01660100 	cmneq	r6, r0, lsl #2
     5cc:	250d0000 	strcs	r0, [sp, #-0]
     5d0:	84000000 	strhi	r0, [r0], #-0
     5d4:	000c0004 	andeq	r0, ip, r4
     5d8:	01000000 	mrseq	r0, (UNDEF: 0)
     5dc:	004f0d2c 	subeq	r0, pc, ip, lsr #26
     5e0:	048c0000 	streq	r0, [ip], #0
     5e4:	00180c00 	andseq	r0, r8, r0, lsl #24
     5e8:	2e010000 	cdpcs	0, 0, cr0, cr1, cr0, {0}
     5ec:	00002e0e 	andeq	r2, r0, lr, lsl #28
     5f0:	00049800 	andeq	r9, r4, r0, lsl #16
     5f4:	0004a00c 	andeq	sl, r4, ip
     5f8:	562d010c 	strtpl	r0, [sp], -ip, lsl #2
     5fc:	0f000001 	svceq	0x00000001
     600:	0000003c 	andeq	r0, r0, ip, lsr r0
     604:	5810007f 	ldmdapl	r0, {r0, r1, r2, r3, r4, r5, r6}
     608:	b0000000 	andlt	r0, r0, r0
     60c:	c40c0004 	strgt	r0, [ip], #-4
     610:	010c0004 	tsteq	ip, r4
     614:	0111002f 	tsteq	r1, pc, lsr #32
     618:	000002af 	andeq	r0, r0, pc, lsr #5
     61c:	04c43201 	strbeq	r3, [r4], #513	; 0x201
     620:	04f80c00 	ldrbteq	r0, [r8], #3072	; 0xc00
     624:	7d020c00 	stcvc	12, cr0, [r2, #-0]
     628:	02060100 	andeq	r0, r6, #0, 2
     62c:	b90c0000 	stmdblt	ip, {}	; <UNPREDICTABLE>
     630:	01000002 	tsteq	r0, r2
     634:	00020634 	andeq	r0, r2, r4, lsr r6
     638:	00010900 	andeq	r0, r1, r0, lsl #18
     63c:	002e0e00 	eoreq	r0, lr, r0, lsl #28
     640:	04c40000 	strbeq	r0, [r4], #0
     644:	04d00c00 	ldrbeq	r0, [r0], #3072	; 0xc00
     648:	36010c00 	strcc	r0, [r1], -r0, lsl #24
     64c:	000001a7 	andeq	r0, r0, r7, lsr #3
     650:	00003c12 	andeq	r3, r0, r2, lsl ip
     654:	13007000 	movwne	r7, #0
     658:	00000030 	andeq	r0, r0, r0, lsr r0
     65c:	000001d8 	ldrdeq	r0, [r0], -r8
     660:	035b0114 	cmpeq	fp, #20, 2
     664:	3b010000 	blcc	4066c <SVC_stack_size+0x3066c>
     668:	00000206 	andeq	r0, r0, r6, lsl #4
     66c:	0001c301 	andeq	ip, r1, r1, lsl #6
     670:	16001500 	strne	r1, [r0], -r0, lsl #10
     674:	0c0004e4 	cfstrseq	mvf0, [r0], {228}	; 0xe4
     678:	00070b01 	andeq	r0, r7, r1, lsl #22
     67c:	50011700 	andpl	r1, r1, r0, lsl #14
     680:	0b800305 	bleq	fe00129c <vinform3+0x4b5f1890>
     684:	00000c00 	andeq	r0, r0, r0, lsl #24
     688:	00004818 	andeq	r4, r0, r8, lsl r8
     68c:	5b011400 	blpl	45694 <SVC_stack_size+0x35694>
     690:	01000003 	tsteq	r0, r3
     694:	0002063b 	andeq	r0, r2, fp, lsr r6
     698:	01f00100 	mvnseq	r0, r0, lsl #2
     69c:	00150000 	andseq	r0, r5, r0
     6a0:	0004ec16 	andeq	lr, r4, r6, lsl ip
     6a4:	070b010c 	streq	r0, [fp, -ip, lsl #2]
     6a8:	01170000 	tsteq	r7, r0
     6ac:	70030550 	andvc	r0, r3, r0, asr r5
     6b0:	000c000b 	andeq	r0, ip, fp
     6b4:	04190000 	ldreq	r0, [r9], #-0
     6b8:	746e6905 	strbtvc	r6, [lr], #-2309	; 0x905
     6bc:	d1011a00 	tstle	r1, r0, lsl #20
     6c0:	01000002 	tsteq	r0, r2
     6c4:	0004f848 	andeq	pc, r4, r8, asr #16
     6c8:	0005dc0c 	andeq	sp, r5, ip, lsl #24
     6cc:	0001310c 	andeq	r3, r1, ip, lsl #2
     6d0:	027e0100 	rsbseq	r0, lr, #0, 2
     6d4:	611b0000 	tstvs	fp, r0
     6d8:	44000000 	strmi	r0, [r0], #-0
     6dc:	600c0005 	andvs	r0, ip, r5
     6e0:	01000000 	mrseq	r0, (UNDEF: 0)
     6e4:	004f0d54 	subeq	r0, pc, r4, asr sp	; <UNPREDICTABLE>
     6e8:	05440000 	strbeq	r0, [r4, #-0]
     6ec:	00780c00 	rsbseq	r0, r8, r0, lsl #24
     6f0:	2e010000 	cdpcs	0, 0, cr0, cr1, cr0, {0}
     6f4:	00002510 	andeq	r2, r0, r0, lsl r5
     6f8:	00059400 	andeq	r9, r5, r0, lsl #8
     6fc:	0005a00c 	andeq	sl, r5, ip
     700:	0e2c010c 	sufeqe	f0, f4, #4.0
     704:	0000002e 	andeq	r0, r0, lr, lsr #32
     708:	0c0005a0 	cfstr32eq	mvfx0, [r0], {160}	; 0xa0
     70c:	0c0005a8 	cfstr32eq	mvfx0, [r0], {168}	; 0xa8
     710:	026d2d01 	rsbeq	r2, sp, #1, 26	; 0x40
     714:	3c0f0000 	stccc	0, cr0, [pc], {-0}
     718:	7f000000 	svcvc	0x00000000
     71c:	00581000 	subseq	r1, r8, r0
     720:	05b80000 	ldreq	r0, [r8, #0]!
     724:	05c40c00 	strbeq	r0, [r4, #3072]	; 0xc00
     728:	2f010c00 	svccs	0x00010c00
     72c:	011c0000 	tsteq	ip, r0
     730:	0000030f 	andeq	r0, r0, pc, lsl #6
     734:	06015901 	streq	r5, [r1], -r1, lsl #18
     738:	dc000002 	stcle	0, cr0, [r0], {2}
     73c:	780c0005 	stmdavc	ip, {r0, r2}
     740:	510c0006 	tstpl	ip, r6
     744:	01000001 	tsteq	r0, r1
     748:	0000038a 	andeq	r0, r0, sl, lsl #7
     74c:	0003240a 	andeq	r2, r3, sl, lsl #8
     750:	8a590100 	bhi	1640b58 <R1_VE+0x640b58>
     754:	71000003 	tstvc	r0, r3
     758:	0a000001 	beq	764 <apll_mdiv+0x65a>
     75c:	0000033f 	andeq	r0, r0, pc, lsr r3
     760:	038a5901 	orreq	r5, sl, #16384	; 0x4000
     764:	01920000 	orrseq	r0, r2, r0
     768:	6c1d0000 	ldcvs	0, cr0, [sp], {-0}
     76c:	01006e65 	tsteq	r0, r5, ror #28
     770:	00038a59 	andeq	r8, r3, r9, asr sl
     774:	0001b300 	andeq	fp, r1, r0, lsl #6
     778:	033a0c00 	teqeq	sl, #0, 24
     77c:	5b010000 	blpl	40784 <SVC_stack_size+0x30784>
     780:	000000f1 	strdeq	r0, [r0], -r1
     784:	000001d4 	ldrdeq	r0, [r0], -r4
     788:	0002ec0c 	andeq	lr, r2, ip, lsl #24
     78c:	f15c0100 			; <UNDEFINED> instruction: 0xf15c0100
     790:	02000000 	andeq	r0, r0, #0
     794:	0c000002 	stceq	0, cr0, [r0], {2}
     798:	000002c6 	andeq	r0, r0, r6, asr #5
     79c:	00f15d01 	rscseq	r5, r1, r1, lsl #26
     7a0:	02200000 	eoreq	r0, r0, #0
     7a4:	ff0c0000 			; <UNDEFINED> instruction: 0xff0c0000
     7a8:	01000002 	tsteq	r0, r2
     7ac:	0003915e 	andeq	r9, r3, lr, asr r1
     7b0:	00023300 	andeq	r3, r2, r0, lsl #6
     7b4:	00690b00 	rsbeq	r0, r9, r0, lsl #22
     7b8:	02065f01 	andeq	r5, r6, #1, 30
     7bc:	02510000 	subseq	r0, r1, #0
     7c0:	250d0000 	strcs	r0, [sp, #-0]
     7c4:	e0000000 	and	r0, r0, r0
     7c8:	900c0005 	andls	r0, ip, r5
     7cc:	01000000 	mrseq	r0, (UNDEF: 0)
     7d0:	002e1e61 	eoreq	r1, lr, r1, ror #28
     7d4:	06040000 	streq	r0, [r4], -r0
     7d8:	00b00c00 	adcseq	r0, r0, r0, lsl #24
     7dc:	63010000 	movwvs	r0, #4096	; 0x1000
     7e0:	0000033e 	andeq	r0, r0, lr, lsr r3
     7e4:	00003c1f 	andeq	r3, r0, pc, lsl ip
     7e8:	00026500 	andeq	r6, r2, r0, lsl #10
     7ec:	2e1e0000 	cdpcs	0, 1, cr0, cr14, cr0, {0}
     7f0:	08000000 	stmdaeq	r0, {}	; <UNPREDICTABLE>
     7f4:	c80c0006 	stmdagt	ip, {r1, r2}
     7f8:	01000000 	mrseq	r0, (UNDEF: 0)
     7fc:	00035b65 	andeq	r5, r3, r5, ror #22
     800:	003c1f00 	eorseq	r1, ip, r0, lsl #30
     804:	02790000 	rsbseq	r0, r9, #0
     808:	10000000 	andne	r0, r0, r0
     80c:	0000004f 	andeq	r0, r0, pc, asr #32
     810:	0c00061c 	stceq	6, cr0, [r0], {28}
     814:	0c000628 	stceq	6, cr0, [r0], {40}	; 0x28
     818:	580d6601 	stmdapl	sp, {r0, r9, sl, sp, lr}
     81c:	5c000000 	stcpl	0, cr0, [r0], {-0}
     820:	e00c0006 	and	r0, ip, r6
     824:	01000000 	mrseq	r0, (UNDEF: 0)
     828:	0618206f 	ldreq	r2, [r8], -pc, rrx
     82c:	00a90c00 	adceq	r0, r9, r0, lsl #24
     830:	01170000 	tsteq	r7, r0
     834:	007a0250 	rsbseq	r0, sl, r0, asr r2
     838:	04050000 	streq	r0, [r5], #-0
     83c:	00013907 	andeq	r3, r1, r7, lsl #18
     840:	48042100 	stmdami	r4, {r8, sp}
     844:	22000000 	andcs	r0, r0, #0
     848:	00038501 	andeq	r8, r3, r1, lsl #10
     84c:	01740100 	cmneq	r4, r0, lsl #2
     850:	0c000678 	stceq	6, cr0, [r0], {120}	; 0x78
     854:	0c00067c 	stceq	6, cr0, [r0], {124}	; 0x7c
     858:	01007d02 	tsteq	r0, r2, lsl #26
     85c:	000003be 			; <UNDEFINED> instruction: 0x000003be
     860:	0002ec23 	andeq	lr, r2, r3, lsr #24
     864:	f1740100 			; <UNDEFINED> instruction: 0xf1740100
     868:	01000000 	mrseq	r0, (UNDEF: 0)
     86c:	01090050 	qaddeq	r0, r0, r9
     870:	00000304 	andeq	r0, r0, r4, lsl #6
     874:	7c017901 	stcvc	9, cr7, [r1], {1}
     878:	ec0c0006 	stc	0, cr0, [ip], {6}
     87c:	8e0c0006 	cdphi	0, 0, cr0, cr12, cr6, {0}
     880:	01000002 	tsteq	r0, r2
     884:	00000461 	andeq	r0, r0, r1, ror #8
     888:	0002ec0a 	andeq	lr, r2, sl, lsl #24
     88c:	8a790100 	bhi	1e40c94 <R1_VE+0xe40c94>
     890:	ae000003 	cdpge	0, 0, cr0, cr0, cr3, {0}
     894:	0c000002 	stceq	0, cr0, [r0], {2}
     898:	000002c6 	andeq	r0, r0, r6, asr #5
     89c:	02067b01 	andeq	r7, r6, #1024	; 0x400
     8a0:	02cf0000 	sbceq	r0, pc, #0
     8a4:	250d0000 	strcs	r0, [sp, #-0]
     8a8:	7c000000 	stcvc	0, cr0, [r0], {-0}
     8ac:	f80c0006 			; <UNDEFINED> instruction: 0xf80c0006
     8b0:	01000000 	mrseq	r0, (UNDEF: 0)
     8b4:	002e1e7f 	eoreq	r1, lr, pc, ror lr
     8b8:	069c0000 	ldreq	r0, [ip], r0
     8bc:	01200c00 	teqeq	r0, r0, lsl #24
     8c0:	80010000 	andhi	r0, r1, r0
     8c4:	0000041f 	andeq	r0, r0, pc, lsl r4
     8c8:	00003c12 	andeq	r3, r0, r2, lsl ip
     8cc:	1e006000 	cdpne	0, 0, cr6, cr0, cr0, {0}
     8d0:	0000002e 	andeq	r0, r0, lr, lsr #32
     8d4:	0c0006b4 	stceq	6, cr0, [r0], {180}	; 0xb4
     8d8:	00000138 	andeq	r0, r0, r8, lsr r1
     8dc:	04398401 	ldrteq	r8, [r9], #-1025	; 0x401
     8e0:	3c0f0000 	stccc	0, cr0, [pc], {-0}
     8e4:	50000000 	andpl	r0, r0, r0
     8e8:	004f0d00 	subeq	r0, pc, r0, lsl #26
     8ec:	06bc0000 	ldrteq	r0, [ip], r0
     8f0:	01500c00 	cmpeq	r0, r0, lsl #24
     8f4:	85010000 	strhi	r0, [r1, #-0]
     8f8:	00005810 	andeq	r5, r0, r0, lsl r8
     8fc:	0006d800 	andeq	sp, r6, r0, lsl #16
     900:	0006ec0c 	andeq	lr, r6, ip, lsl #24
     904:	2487010c 	strcs	r0, [r7], #268	; 0x10c
     908:	0c0006d8 	stceq	6, cr0, [r0], {216}	; 0xd8
     90c:	00000166 	andeq	r0, r0, r6, ror #2
     910:	96010900 	strls	r0, [r1], -r0, lsl #18
     914:	01000003 	tsteq	r0, r3
     918:	06ec018d 	strbteq	r0, [ip], sp, lsl #3
     91c:	07b80c00 	ldreq	r0, [r8, r0, lsl #24]!
     920:	02f20c00 	rscseq	r0, r2, #0, 24
     924:	58010000 	stmdapl	r1, {}	; <UNPREDICTABLE>
     928:	0a000005 	beq	944 <R1_BP+0x144>
     92c:	00000324 	andeq	r0, r0, r4, lsr #6
     930:	038a8d01 	orreq	r8, sl, #1, 26	; 0x40
     934:	03120000 	tsteq	r2, #0
     938:	621d0000 	andsvs	r0, sp, #0
     93c:	01006675 	tsteq	r0, r5, ror r6
     940:	0003918d 	andeq	r9, r3, sp, lsl #3
     944:	00033300 	andeq	r3, r3, r0, lsl #6
     948:	656c1d00 	strbvs	r1, [ip, #-3328]!	; 0xd00
     94c:	8d01006e 	stchi	0, cr0, [r1, #-440]	; 0xfffffe48
     950:	0000038a 	andeq	r0, r0, sl, lsl #7
     954:	00000351 	andeq	r0, r0, r1, asr r3
     958:	0002cb0c 	andeq	ip, r2, ip, lsl #22
     95c:	f18f0100 			; <UNDEFINED> instruction: 0xf18f0100
     960:	6f000000 	svcvs	0x00000000
     964:	0c000003 	stceq	0, cr0, [r0], {3}
     968:	000002ec 	andeq	r0, r0, ip, ror #5
     96c:	00f19001 	rscseq	r9, r1, r1
     970:	03a40000 			; <UNDEFINED> instruction: 0x03a40000
     974:	690b0000 	stmdbvs	fp, {}	; <UNPREDICTABLE>
     978:	06910100 	ldreq	r0, [r1], r0, lsl #2
     97c:	cd000002 	stcgt	0, cr0, [r0, #-8]
     980:	0d000003 	stceq	0, cr0, [r0, #-12]
     984:	00000025 	andeq	r0, r0, r5, lsr #32
     988:	0c0006f0 	stceq	6, cr0, [r0], {240}	; 0xf0
     98c:	00000168 	andeq	r0, r0, r8, ror #2
     990:	2e1e9301 	cdpcs	3, 1, cr9, cr14, cr1, {0}
     994:	20000000 	andcs	r0, r0, r0
     998:	900c0007 	andls	r0, ip, r7
     99c:	01000001 	tsteq	r0, r1
     9a0:	0004ff96 	muleq	r4, r6, pc	; <UNPREDICTABLE>
     9a4:	003c1f00 	eorseq	r1, ip, r0, lsl #30
     9a8:	03f70000 	mvnseq	r0, #0
     9ac:	0e000000 	cdpeq	0, 0, cr0, cr0, cr0, {0}
     9b0:	0000002e 	andeq	r0, r0, lr, lsr #32
     9b4:	0c000778 	stceq	7, cr0, [r0], {120}	; 0x78
     9b8:	0c000780 	stceq	7, cr0, [r0], {128}	; 0x80
     9bc:	051c9d01 	ldreq	r9, [ip, #-3329]	; 0xd01
     9c0:	3c1f0000 	ldccc	0, cr0, [pc], {-0}
     9c4:	0c000000 	stceq	0, cr0, [r0], {-0}
     9c8:	00000004 	andeq	r0, r0, r4
     9cc:	00004f10 	andeq	r4, r0, r0, lsl pc
     9d0:	00078000 	andeq	r8, r7, r0
     9d4:	00078c0c 	andeq	r8, r7, ip, lsl #24
     9d8:	109e010c 	addsne	r0, lr, ip, lsl #2
     9dc:	00000058 	andeq	r0, r0, r8, asr r0
     9e0:	0c00079c 	stceq	7, cr0, [r0], {156}	; 0x9c
     9e4:	0c0007b8 	stceq	7, cr0, [r0], {184}	; 0xb8
     9e8:	3025a201 	eorcc	sl, r5, r1, lsl #4
     9ec:	a90c0007 	stmdbge	ip, {r0, r1, r2}
     9f0:	4e000000 	cdpmi	0, 0, cr0, cr0, cr0, {0}
     9f4:	17000005 	strne	r0, [r0, -r5]
     9f8:	7a025001 	bvc	94a04 <SVC_stack_size+0x84a04>
     9fc:	90240000 	eorls	r0, r4, r0
     a00:	660c0007 	strvs	r0, [ip], -r7
     a04:	00000001 	andeq	r0, r0, r1
     a08:	037c0109 	cmneq	ip, #1073741826	; 0x40000002
     a0c:	a5010000 	strge	r0, [r1, #-0]
     a10:	0007b801 	andeq	fp, r7, r1, lsl #16
     a14:	00080c0c 	andeq	r0, r8, ip, lsl #24
     a18:	0004200c 	andeq	r2, r4, ip
     a1c:	05ef0100 	strbeq	r0, [pc, #256]!	; b24 <R1_BP+0x324>
     a20:	e00a0000 	and	r0, sl, r0
     a24:	01000002 	tsteq	r0, r2
     a28:	0000f1a5 	andeq	pc, r0, r5, lsr #3
     a2c:	00044000 	andeq	r4, r4, r0
     a30:	033a0c00 	teqeq	sl, #0, 24
     a34:	a6010000 	strge	r0, [r1], -r0
     a38:	000000f1 	strdeq	r0, [r0], -r1
     a3c:	00000461 	andeq	r0, r0, r1, ror #8
     a40:	0002db26 	andeq	sp, r2, r6, lsr #22
     a44:	f1a70100 			; <UNDEFINED> instruction: 0xf1a70100
     a48:	01000000 	mrseq	r0, (UNDEF: 0)
     a4c:	00690b56 	rsbeq	r0, r9, r6, asr fp
     a50:	00f1a801 	rscseq	sl, r1, r1, lsl #16
     a54:	04840000 	streq	r0, [r4], #0
     a58:	e0250000 	eor	r0, r5, r0
     a5c:	7e0c0007 	cdpvc	0, 0, cr0, cr12, cr7, {0}
     a60:	ce000002 	cdpgt	0, 0, cr0, cr0, cr2, {0}
     a64:	17000005 	strne	r0, [r0, -r5]
     a68:	76025201 	strvc	r5, [r2], -r1, lsl #4
     a6c:	51011700 	tstpl	r1, r0, lsl #14
     a70:	80807406 	addhi	r7, r0, r6, lsl #8
     a74:	17058080 	strne	r8, [r5, -r0, lsl #1]
     a78:	74025001 	strvc	r5, [r2], #-1
     a7c:	08160000 	ldmdaeq	r6, {}	; <UNPREDICTABLE>
     a80:	010c0008 	tsteq	ip, r8
     a84:	0000027e 	andeq	r0, r0, lr, ror r2
     a88:	02520117 	subseq	r0, r2, #-1073741819	; 0xc0000005
     a8c:	01170075 	tsteq	r7, r5, ror r0
     a90:	000c0551 	andeq	r0, ip, r1, asr r5
     a94:	17500008 	ldrbne	r0, [r0, -r8]
     a98:	74025001 	strvc	r5, [r2], #-1
     a9c:	09000000 	stmdbeq	r0, {}	; <UNPREDICTABLE>
     aa0:	00032f01 	andeq	r2, r3, r1, lsl #30
     aa4:	01b50100 			; <UNDEFINED> instruction: 0x01b50100
     aa8:	0c00080c 	stceq	8, cr0, [r0], {12}
     aac:	0c000860 	stceq	8, cr0, [r0], {96}	; 0x60
     ab0:	00000498 	muleq	r0, r8, r4
     ab4:	0006b101 	andeq	fp, r6, r1, lsl #2
     ab8:	033f0a00 	teqeq	pc, #0, 20
     abc:	b5010000 	strlt	r0, [r1, #-0]
     ac0:	000000f1 	strdeq	r0, [r0], -r1
     ac4:	000004b8 			; <UNDEFINED> instruction: 0x000004b8
     ac8:	0002e00a 	andeq	lr, r2, sl
     acc:	f1b50100 			; <UNDEFINED> instruction: 0xf1b50100
     ad0:	d6000000 	strle	r0, [r0], -r0
     ad4:	0b000004 	bleq	aec <R1_BP+0x2ec>
     ad8:	00637273 	rsbeq	r7, r3, r3, ror r2
     adc:	0391b601 	orrseq	fp, r1, #1048576	; 0x100000
     ae0:	04f70000 	ldrbteq	r0, [r7], #0
     ae4:	3a0c0000 	bcc	300aec <SVC_stack_size+0x2f0aec>
     ae8:	01000003 	tsteq	r0, r3
     aec:	0000f1b7 			; <UNDEFINED> instruction: 0x0000f1b7
     af0:	00051500 	andeq	r1, r5, r0, lsl #10
     af4:	02db2600 	sbcseq	r2, fp, #0, 12
     af8:	b8010000 	stmdalt	r1, {}	; <UNPREDICTABLE>
     afc:	000000f1 	strdeq	r0, [r0], -r1
     b00:	690b5601 	stmdbvs	fp, {r0, r9, sl, ip, lr}
     b04:	f1b90100 			; <UNDEFINED> instruction: 0xf1b90100
     b08:	43000000 	movwmi	r0, #0
     b0c:	0c000005 	stceq	0, cr0, [r0], {5}
     b10:	000002f8 	strdeq	r0, [r0], -r8
     b14:	00f1ba01 	rscseq	fp, r1, r1, lsl #20
     b18:	05570000 	ldrbeq	r0, [r7, #-0]
     b1c:	38250000 	stmdacc	r5!, {}	; <UNPREDICTABLE>
     b20:	610c0008 	tstvs	ip, r8
     b24:	91000004 	tstls	r0, r4
     b28:	17000006 	strne	r0, [r0, -r6]
     b2c:	76025201 	strvc	r5, [r2], -r1, lsl #4
     b30:	51011700 	tstpl	r1, r0, lsl #14
     b34:	77007405 	strvc	r7, [r0, -r5, lsl #8]
     b38:	01172200 	tsteq	r7, r0, lsl #4
     b3c:	00740250 	rsbseq	r0, r4, r0, asr r2
     b40:	08601600 	stmdaeq	r0!, {r9, sl, ip}^
     b44:	61010c00 	tstvs	r1, r0, lsl #24
     b48:	17000004 	strne	r0, [r0, -r4]
     b4c:	75025201 	strvc	r5, [r2, #-513]	; 0x201
     b50:	51011700 	tstpl	r1, r0, lsl #14
     b54:	c0807704 	addgt	r7, r0, r4, lsl #14
     b58:	50011700 	andpl	r1, r1, r0, lsl #14
     b5c:	00007402 	andeq	r7, r0, r2, lsl #8
     b60:	66012200 	strvs	r2, [r1], -r0, lsl #4
     b64:	01000003 	tsteq	r0, r3
     b68:	086001cb 	stmdaeq	r0!, {r0, r1, r3, r6, r7, r8}^
     b6c:	088c0c00 	stmeq	ip, {sl, fp}
     b70:	7d020c00 	stcvc	12, cr0, [r2, #-0]
     b74:	07050100 	streq	r0, [r5, -r0, lsl #2]
     b78:	c00a0000 	andgt	r0, sl, r0
     b7c:	01000002 	tsteq	r0, r2
     b80:	0000f1cb 	andeq	pc, r0, fp, asr #3
     b84:	00058500 	andeq	r8, r5, r0, lsl #10
     b88:	02e00a00 	rsceq	r0, r0, #0, 20
     b8c:	cb010000 	blgt	40b94 <SVC_stack_size+0x30b94>
     b90:	000000f1 	strdeq	r0, [r0], -r1
     b94:	000005a6 	andeq	r0, r0, r6, lsr #11
     b98:	74736427 	ldrbtvc	r6, [r3], #-1063	; 0x427
     b9c:	05cc0100 	strbeq	r0, [ip, #256]	; 0x100
     ba0:	01000007 	tsteq	r0, r7
     ba4:	02cb0c50 	sbceq	r0, fp, #80, 24	; 0x5000
     ba8:	cd010000 	stcgt	0, cr0, [r1, #-0]
     bac:	000000f1 	strdeq	r0, [r0], -r1
     bb0:	000005c6 	andeq	r0, r0, r6, asr #11
     bb4:	f1042100 			; <UNDEFINED> instruction: 0xf1042100
     bb8:	28000000 	stmdacs	r0, {}	; <UNPREDICTABLE>
     bbc:	00035b01 	andeq	r5, r3, r1, lsl #22
     bc0:	063b0100 	ldrteq	r0, [fp], -r0, lsl #2
     bc4:	01000002 	tsteq	r0, r2
     bc8:	7d000015 	stcvc	0, cr0, [r0, #-84]	; 0xffffffac
     bcc:	02000010 	andeq	r0, r0, #16
     bd0:	00035800 	andeq	r5, r3, r0, lsl #16
     bd4:	03010400 	movweq	r0, #5120	; 0x1400
     bd8:	01000002 	tsteq	r0, r2
     bdc:	000005a7 	andeq	r0, r0, r7, lsr #11
     be0:	00000161 	andeq	r0, r0, r1, ror #2
     be4:	0c00088c 	stceq	8, cr0, [r0], {140}	; 0x8c
     be8:	0c000a08 	stceq	10, cr0, [r0], {8}
     bec:	0000038b 	andeq	r0, r0, fp, lsl #7
     bf0:	2f070802 	svccs	0x00070802
     bf4:	02000001 	andeq	r0, r0, #1
     bf8:	01c40508 	biceq	r0, r4, r8, lsl #10
     bfc:	46030000 	strmi	r0, [r3], -r0
     c00:	02000002 	andeq	r0, r0, #2
     c04:	00003e2d 	andeq	r3, r0, sp, lsr #28
     c08:	07040200 	streq	r0, [r4, -r0, lsl #4]
     c0c:	00000139 	andeq	r0, r0, r9, lsr r1
     c10:	00067c03 	andeq	r7, r6, r3, lsl #24
     c14:	502e0200 	eorpl	r0, lr, r0, lsl #4
     c18:	02000000 	andeq	r0, r0, #0
     c1c:	00b60702 	adcseq	r0, r6, r2, lsl #14
     c20:	04040000 	streq	r0, [r4], #-0
     c24:	746e6905 	strbtvc	r6, [lr], #-2309	; 0x905
     c28:	05020200 	streq	r0, [r2, #-512]	; 0x200
     c2c:	0000022d 	andeq	r0, r0, sp, lsr #4
     c30:	000afe03 	andeq	pc, sl, r3, lsl #28
     c34:	70310200 	eorsvc	r0, r1, r0, lsl #4
     c38:	02000000 	andeq	r0, r0, #0
     c3c:	00a30801 	adceq	r0, r3, r1, lsl #16
     c40:	01020000 	mrseq	r0, (UNDEF: 2)
     c44:	0000a506 	andeq	sl, r0, r6, lsl #10
     c48:	06530300 	ldrbeq	r0, [r3], -r0, lsl #6
     c4c:	5a020000 	bpl	80c54 <SVC_stack_size+0x70c54>
     c50:	00000045 	andeq	r0, r0, r5, asr #32
     c54:	0004fd03 	andeq	pc, r4, r3, lsl #26
     c58:	7e610200 	cdpvc	2, 6, cr0, cr1, cr0, {0}
     c5c:	05000000 	streq	r0, [r0, #-0]
     c60:	00000b5f 	andeq	r0, r0, pc, asr fp
     c64:	09030940 	stmdbeq	r3, {r6, r8, fp}
     c68:	00000981 	andeq	r0, r0, r1, lsl #19
     c6c:	000ba406 	andeq	sl, fp, r6, lsl #8
     c70:	330b0300 	movwcc	r0, #45824	; 0xb300
     c74:	02000000 	andeq	r0, r0, #0
     c78:	79060023 	stmdbvc	r6, {r0, r1, r5}
     c7c:	0300000b 	movweq	r0, #11
     c80:	0000330c 	andeq	r3, r0, ip, lsl #6
     c84:	04230200 	strteq	r0, [r3], #-512	; 0x200
     c88:	0006fb06 	andeq	pc, r6, r6, lsl #22
     c8c:	330d0300 	movwcc	r0, #54016	; 0xd300
     c90:	02000000 	andeq	r0, r0, #0
     c94:	61060823 	tstvs	r6, r3, lsr #16
     c98:	03000009 	movweq	r0, #9
     c9c:	0000330e 	andeq	r3, r0, lr, lsl #6
     ca0:	0c230200 	sfmeq	f0, 4, [r3], #-0
     ca4:	00070206 	andeq	r0, r7, r6, lsl #4
     ca8:	33100300 	tstcc	r0, #0, 6
     cac:	02000000 	andeq	r0, r0, #0
     cb0:	ab061023 	blge	184d44 <SVC_stack_size+0x174d44>
     cb4:	0300000b 	movweq	r0, #11
     cb8:	00098111 	andeq	r8, r9, r1, lsl r1
     cbc:	14230200 	strtne	r0, [r3], #-512	; 0x200
     cc0:	000a9506 	andeq	r9, sl, r6, lsl #10
     cc4:	33130300 	tstcc	r3, #0, 6
     cc8:	02000000 	andeq	r0, r0, #0
     ccc:	80062023 	andhi	r2, r6, r3, lsr #32
     cd0:	0300000a 	movweq	r0, #10
     cd4:	00003314 	andeq	r3, r0, r4, lsl r3
     cd8:	24230200 	strtcs	r0, [r3], #-512	; 0x200
     cdc:	0005eb06 	andeq	lr, r5, r6, lsl #22
     ce0:	33150300 	tstcc	r5, #0, 6
     ce4:	02000000 	andeq	r0, r0, #0
     ce8:	92062823 	andls	r2, r6, #2293760	; 0x230000
     cec:	03000005 	movweq	r0, #5
     cf0:	00003316 	andeq	r3, r0, r6, lsl r3
     cf4:	2c230200 	sfmcs	f0, 4, [r3], #-0
     cf8:	000aee06 	andeq	lr, sl, r6, lsl #28
     cfc:	33180300 	tstcc	r8, #0, 6
     d00:	02000000 	andeq	r0, r0, #0
     d04:	b0063023 	andlt	r3, r6, r3, lsr #32
     d08:	0300000b 	movweq	r0, #11
     d0c:	00098119 	andeq	r8, r9, r9, lsl r1
     d10:	34230200 	strtcc	r0, [r3], #-512	; 0x200
     d14:	0009b306 	andeq	fp, r9, r6, lsl #6
     d18:	331b0300 	tstcc	fp, #0, 6
     d1c:	02000000 	andeq	r0, r0, #0
     d20:	93064023 	movwls	r4, #24611	; 0x6023
     d24:	03000009 	movweq	r0, #9
     d28:	0000331c 	andeq	r3, r0, ip, lsl r3
     d2c:	44230200 	strtmi	r0, [r3], #-512	; 0x200
     d30:	0004e606 	andeq	lr, r4, r6, lsl #12
     d34:	331d0300 	tstcc	sp, #0, 6
     d38:	02000000 	andeq	r0, r0, #0
     d3c:	c5064823 	strgt	r4, [r6, #-2083]	; 0x823
     d40:	03000009 	movweq	r0, #9
     d44:	0000331e 	andeq	r3, r0, lr, lsl r3
     d48:	4c230200 	sfmmi	f0, 4, [r3], #-0
     d4c:	00075806 	andeq	r5, r7, r6, lsl #16
     d50:	33200300 	teqcc	r0, #0, 6
     d54:	02000000 	andeq	r0, r0, #0
     d58:	b5065023 	strlt	r5, [r6, #-35]	; 0x23
     d5c:	0300000b 	movweq	r0, #11
     d60:	00098121 	andeq	r8, r9, r1, lsr #2
     d64:	54230200 	strtpl	r0, [r3], #-512	; 0x200
     d68:	0008fd06 	andeq	pc, r8, r6, lsl #26
     d6c:	33230300 	teqcc	r3, #0, 6
     d70:	02000000 	andeq	r0, r0, #0
     d74:	e0066023 	and	r6, r6, r3, lsr #32
     d78:	03000008 	movweq	r0, #8
     d7c:	00003324 	andeq	r3, r0, r4, lsr #6
     d80:	64230200 	strtvs	r0, [r3], #-512	; 0x200
     d84:	00040706 	andeq	r0, r4, r6, lsl #14
     d88:	33250300 	teqcc	r5, #0, 6
     d8c:	02000000 	andeq	r0, r0, #0
     d90:	c5066823 	strgt	r6, [r6, #-2083]	; 0x823
     d94:	03000005 	movweq	r0, #5
     d98:	00003326 	andeq	r3, r0, r6, lsr #6
     d9c:	6c230200 	sfmvs	f0, 4, [r3], #-0
     da0:	000b2806 	andeq	r2, fp, r6, lsl #16
     da4:	33280300 	teqcc	r8, #0, 6
     da8:	02000000 	andeq	r0, r0, #0
     dac:	ba067023 	blt	19ce40 <SVC_stack_size+0x18ce40>
     db0:	0300000b 	movweq	r0, #11
     db4:	00098129 	andeq	r8, r9, r9, lsr #2
     db8:	74230200 	strtvc	r0, [r3], #-512	; 0x200
     dbc:	00080b06 	andeq	r0, r8, r6, lsl #22
     dc0:	332b0300 	teqcc	fp, #0, 6
     dc4:	03000000 	movweq	r0, #0
     dc8:	06018023 	streq	r8, [r1], -r3, lsr #32
     dcc:	000007f6 	strdeq	r0, [r0], -r6
     dd0:	00332c03 	eorseq	r2, r3, r3, lsl #24
     dd4:	23030000 	movwcs	r0, #12288	; 0x3000
     dd8:	52060184 	andpl	r0, r6, #132, 2	; 0x21
     ddc:	0300000b 	movweq	r0, #11
     de0:	0000332d 	andeq	r3, r0, sp, lsr #6
     de4:	88230300 	stmdahi	r3!, {r8, r9}
     de8:	09d90601 	ldmibeq	r9, {r0, r9, sl}^
     dec:	2e030000 	cdpcs	0, 0, cr0, cr3, cr0, {0}
     df0:	00000033 	andeq	r0, r0, r3, lsr r0
     df4:	018c2303 	orreq	r2, ip, r3, lsl #6
     df8:	00078306 	andeq	r8, r7, r6, lsl #6
     dfc:	33300300 	teqcc	r0, #0, 6
     e00:	03000000 	movweq	r0, #0
     e04:	06019023 	streq	r9, [r1], -r3, lsr #32
     e08:	00000bbf 			; <UNDEFINED> instruction: 0x00000bbf
     e0c:	09813103 	stmibeq	r1, {r0, r1, r8, ip, sp}
     e10:	23030000 	movwcs	r0, #12288	; 0x3000
     e14:	51060194 			; <UNDEFINED> instruction: 0x51060194
     e18:	03000007 	movweq	r0, #7
     e1c:	00003333 	andeq	r3, r0, r3, lsr r3
     e20:	a0230300 	eorge	r0, r3, r0, lsl #6
     e24:	072d0601 	streq	r0, [sp, -r1, lsl #12]!
     e28:	34030000 	strcc	r0, [r3], #-0
     e2c:	00000033 	andeq	r0, r0, r3, lsr r0
     e30:	01a42303 			; <UNDEFINED> instruction: 0x01a42303
     e34:	000a6706 	andeq	r6, sl, r6, lsl #14
     e38:	33350300 	teqcc	r5, #0, 6
     e3c:	03000000 	movweq	r0, #0
     e40:	0601a823 	streq	sl, [r1], -r3, lsr #16
     e44:	00000600 	andeq	r0, r0, r0, lsl #12
     e48:	00333603 	eorseq	r3, r3, r3, lsl #12
     e4c:	23030000 	movwcs	r0, #12288	; 0x3000
     e50:	930601ac 	movwls	r0, #25004	; 0x61ac
     e54:	0300000b 	movweq	r0, #11
     e58:	00003338 	andeq	r3, r0, r8, lsr r3
     e5c:	b0230300 	eorlt	r0, r3, r0, lsl #6
     e60:	0bc40601 	bleq	ff10266c <vinform3+0x4c6f2c60>
     e64:	39030000 	stmdbcc	r3, {}	; <UNPREDICTABLE>
     e68:	00000981 	andeq	r0, r0, r1, lsl #19
     e6c:	01b42303 			; <UNDEFINED> instruction: 0x01b42303
     e70:	00061106 	andeq	r1, r6, r6, lsl #2
     e74:	333b0300 	teqcc	fp, #0, 6
     e78:	03000000 	movweq	r0, #0
     e7c:	0601c023 	streq	ip, [r1], -r3, lsr #32
     e80:	000005f9 	strdeq	r0, [r0], -r9
     e84:	00333c03 	eorseq	r3, r3, r3, lsl #24
     e88:	23030000 	movwcs	r0, #12288	; 0x3000
     e8c:	790601c4 	stmdbvc	r6, {r2, r6, r7, r8}
     e90:	03000009 	movweq	r0, #9
     e94:	0000333d 	andeq	r3, r0, sp, lsr r3
     e98:	c8230300 	stmdagt	r3!, {r8, r9}
     e9c:	0a340601 	beq	d026a8 <fin+0x190ba8>
     ea0:	3e030000 	cdpcc	0, 0, cr0, cr3, cr0, {0}
     ea4:	00000033 	andeq	r0, r0, r3, lsr r0
     ea8:	01cc2303 	biceq	r2, ip, r3, lsl #6
     eac:	0009cf06 	andeq	ip, r9, r6, lsl #30
     eb0:	33400300 	movtcc	r0, #768	; 0x300
     eb4:	03000000 	movweq	r0, #0
     eb8:	0601d023 	streq	sp, [r1], -r3, lsr #32
     ebc:	00000bc9 	andeq	r0, r0, r9, asr #23
     ec0:	09814103 	stmibeq	r1, {r0, r1, r8, lr}
     ec4:	23030000 	movwcs	r0, #12288	; 0x3000
     ec8:	5f0601d4 	svcpl	0x000601d4
     ecc:	0300000a 	movweq	r0, #10
     ed0:	00003343 	andeq	r3, r0, r3, asr #6
     ed4:	e0230300 	eor	r0, r3, r0, lsl #6
     ed8:	071e0601 	ldreq	r0, [lr, -r1, lsl #12]
     edc:	44030000 	strmi	r0, [r3], #-0
     ee0:	00000033 	andeq	r0, r0, r3, lsr r0
     ee4:	01e42303 	mvneq	r2, r3, lsl #6
     ee8:	00052006 	andeq	r2, r5, r6
     eec:	33450300 	movtcc	r0, #21248	; 0x5300
     ef0:	03000000 	movweq	r0, #0
     ef4:	0601e823 	streq	lr, [r1], -r3, lsr #16
     ef8:	000008c7 	andeq	r0, r0, r7, asr #17
     efc:	00334603 	eorseq	r4, r3, r3, lsl #12
     f00:	23030000 	movwcs	r0, #12288	; 0x3000
     f04:	360601ec 	strcc	r0, [r6], -ip, ror #3
     f08:	03000006 	movweq	r0, #6
     f0c:	00003348 	andeq	r3, r0, r8, asr #6
     f10:	f0230300 			; <UNDEFINED> instruction: 0xf0230300
     f14:	06180601 	ldreq	r0, [r8], -r1, lsl #12
     f18:	49030000 	stmdbmi	r3, {}	; <UNPREDICTABLE>
     f1c:	00000033 	andeq	r0, r0, r3, lsr r0
     f20:	01f42303 	mvnseq	r2, r3, lsl #6
     f24:	000bce06 	andeq	ip, fp, r6, lsl #28
     f28:	984a0300 	stmdals	sl, {r8, r9}^
     f2c:	03000009 	movweq	r0, #9
     f30:	0601f823 	streq	pc, [r1], -r3, lsr #16
     f34:	00000446 	andeq	r0, r0, r6, asr #8
     f38:	00334c03 	eorseq	r4, r3, r3, lsl #24
     f3c:	23030000 	movwcs	r0, #12288	; 0x3000
     f40:	2a060280 	bcs	181948 <SVC_stack_size+0x171948>
     f44:	03000004 	movweq	r0, #4
     f48:	0000334d 	andeq	r3, r0, sp, asr #6
     f4c:	84230300 	strthi	r0, [r3], #-768	; 0x300
     f50:	07ef0602 	strbeq	r0, [pc, r2, lsl #12]!
     f54:	4e030000 	cdpmi	0, 0, cr0, cr3, cr0, {0}
     f58:	00000033 	andeq	r0, r0, r3, lsr r0
     f5c:	02882303 	addeq	r2, r8, #201326592	; 0xc000000
     f60:	0004b406 	andeq	fp, r4, r6, lsl #8
     f64:	334f0300 	movtcc	r0, #62208	; 0xf300
     f68:	03000000 	movweq	r0, #0
     f6c:	06028c23 	streq	r8, [r2], -r3, lsr #24
     f70:	00000a2a 	andeq	r0, r0, sl, lsr #20
     f74:	00335103 	eorseq	r5, r3, r3, lsl #2
     f78:	23030000 	movwcs	r0, #12288	; 0x3000
     f7c:	d3060290 	movwle	r0, #25232	; 0x6290
     f80:	0300000b 	movweq	r0, #11
     f84:	00098152 	andeq	r8, r9, r2, asr r1
     f88:	94230300 	strtls	r0, [r3], #-768	; 0x300
     f8c:	04a40602 	strteq	r0, [r4], #1538	; 0x602
     f90:	54030000 	strpl	r0, [r3], #-0
     f94:	00000033 	andeq	r0, r0, r3, lsr r0
     f98:	02a02303 	adceq	r2, r0, #201326592	; 0xc000000
     f9c:	000b9d06 	andeq	r9, fp, r6, lsl #26
     fa0:	33550300 	cmpcc	r5, #0, 6
     fa4:	03000000 	movweq	r0, #0
     fa8:	0602a423 	streq	sl, [r2], -r3, lsr #8
     fac:	00000726 	andeq	r0, r0, r6, lsr #14
     fb0:	00335603 	eorseq	r5, r3, r3, lsl #12
     fb4:	23030000 	movwcs	r0, #12288	; 0x3000
     fb8:	e10602a8 	smlatb	r6, r8, r2, r0
     fbc:	03000005 	movweq	r0, #5
     fc0:	00003357 	andeq	r3, r0, r7, asr r3
     fc4:	ac230300 	stcge	3, cr0, [r3], #-0
     fc8:	062c0602 	strteq	r0, [ip], -r2, lsl #12
     fcc:	59030000 	stmdbpl	r3, {}	; <UNPREDICTABLE>
     fd0:	00000033 	andeq	r0, r0, r3, lsr r0
     fd4:	02b02303 	adcseq	r2, r0, #201326592	; 0xc000000
     fd8:	000a4706 	andeq	r4, sl, r6, lsl #14
     fdc:	815a0300 	cmphi	sl, r0, lsl #6
     fe0:	03000009 	movweq	r0, #9
     fe4:	0602b423 	streq	fp, [r2], -r3, lsr #8
     fe8:	0000076b 	andeq	r0, r0, fp, ror #14
     fec:	00335e03 	eorseq	r5, r3, r3, lsl #28
     ff0:	23030000 	movwcs	r0, #12288	; 0x3000
     ff4:	4a0602c0 	bmi	181afc <SVC_stack_size+0x171afc>
     ff8:	03000007 	movweq	r0, #7
     ffc:	0000335f 	andeq	r3, r0, pc, asr r3
    1000:	c4230300 	strtgt	r0, [r3], #-768	; 0x300
    1004:	0a870602 	beq	fe1c2814 <vinform3+0x4b7b2e08>
    1008:	60030000 	andvs	r0, r3, r0
    100c:	00000033 	andeq	r0, r0, r3, lsr r0
    1010:	02c82303 	sbceq	r2, r8, #201326592	; 0xc000000
    1014:	00057c06 	andeq	r7, r5, r6, lsl #24
    1018:	33610300 	cmncc	r1, #0, 6
    101c:	03000000 	movweq	r0, #0
    1020:	0602cc23 	streq	ip, [r2], -r3, lsr #24
    1024:	00000ae4 	andeq	r0, r0, r4, ror #21
    1028:	00336303 	eorseq	r6, r3, r3, lsl #6
    102c:	23030000 	movwcs	r0, #12288	; 0x3000
    1030:	4d0602d0 	sfmmi	f0, 4, [r6, #-832]	; 0xfffffcc0
    1034:	0300000a 	movweq	r0, #10
    1038:	00098164 	andeq	r8, r9, r4, ror #2
    103c:	d4230300 	strtle	r0, [r3], #-768	; 0x300
    1040:	09eb0602 	stmibeq	fp!, {r1, r9, sl}^
    1044:	66030000 	strvs	r0, [r3], -r0
    1048:	00000033 	andeq	r0, r0, r3, lsr r0
    104c:	02e02303 	rsceq	r2, r0, #201326592	; 0xc000000
    1050:	00060a06 	andeq	r0, r6, r6, lsl #20
    1054:	33670300 	cmncc	r7, #0, 6
    1058:	03000000 	movweq	r0, #0
    105c:	0602e423 	streq	lr, [r2], -r3, lsr #8
    1060:	0000099a 	muleq	r0, sl, r9
    1064:	00336803 	eorseq	r6, r3, r3, lsl #16
    1068:	23030000 	movwcs	r0, #12288	; 0x3000
    106c:	800602e8 	andhi	r0, r6, r8, ror #5
    1070:	03000009 	movweq	r0, #9
    1074:	00003369 	andeq	r3, r0, r9, ror #6
    1078:	ec230300 	stc	3, cr0, [r3], #-0
    107c:	07400602 	strbeq	r0, [r0, -r2, lsl #12]
    1080:	6b030000 	blvs	c1088 <SVC_stack_size+0xb1088>
    1084:	00000033 	andeq	r0, r0, r3, lsr r0
    1088:	02f02303 	rscseq	r2, r0, #201326592	; 0xc000000
    108c:	000a5306 	andeq	r5, sl, r6, lsl #6
    1090:	816c0300 	cmnhi	ip, r0, lsl #6
    1094:	03000009 	movweq	r0, #9
    1098:	0602f423 	streq	pc, [r2], -r3, lsr #8
    109c:	00000538 	andeq	r0, r0, r8, lsr r5
    10a0:	00336e03 	eorseq	r6, r3, r3, lsl #28
    10a4:	23030000 	movwcs	r0, #12288	; 0x3000
    10a8:	27060380 	strcs	r0, [r6, -r0, lsl #7]
    10ac:	03000005 	movweq	r0, #5
    10b0:	0000336f 	andeq	r3, r0, pc, ror #6
    10b4:	84230300 	strthi	r0, [r3], #-768	; 0x300
    10b8:	08e70603 	stmiaeq	r7!, {r0, r1, r9, sl}^
    10bc:	70030000 	andvc	r0, r3, r0
    10c0:	00000033 	andeq	r0, r0, r3, lsr r0
    10c4:	03882303 	orreq	r2, r8, #201326592	; 0xc000000
    10c8:	0005bb06 	andeq	fp, r5, r6, lsl #22
    10cc:	33710300 	cmncc	r1, #0, 6
    10d0:	03000000 	movweq	r0, #0
    10d4:	06038c23 	streq	r8, [r3], -r3, lsr #24
    10d8:	00000b1e 	andeq	r0, r0, lr, lsl fp
    10dc:	00337303 	eorseq	r7, r3, r3, lsl #6
    10e0:	23030000 	movwcs	r0, #12288	; 0x3000
    10e4:	59060390 	stmdbpl	r6, {r4, r7, r8, r9}
    10e8:	0300000a 	movweq	r0, #10
    10ec:	00098174 	andeq	r8, r9, r4, ror r1
    10f0:	94230300 	strtls	r0, [r3], #-768	; 0x300
    10f4:	05ae0603 	streq	r0, [lr, #1539]!	; 0x603
    10f8:	76030000 	strvc	r0, [r3], -r0
    10fc:	00000033 	andeq	r0, r0, r3, lsr r0
    1100:	03a02303 	moveq	r2, #201326592	; 0xc000000
    1104:	00093606 	andeq	r3, r9, r6, lsl #12
    1108:	81770300 	cmnhi	r7, r0, lsl #6
    110c:	03000009 	movweq	r0, #9
    1110:	0603a423 	streq	sl, [r3], -r3, lsr #8
    1114:	00000734 	andeq	r0, r0, r4, lsr r7
    1118:	00337903 	eorseq	r7, r3, r3, lsl #18
    111c:	23030000 	movwcs	r0, #12288	; 0x3000
    1120:	820603b0 	andhi	r0, r6, #176, 6	; 0xc0000002
    1124:	03000004 	movweq	r0, #4
    1128:	0000337a 	andeq	r3, r0, sl, ror r3
    112c:	b4230300 	strtlt	r0, [r3], #-768	; 0x300
    1130:	093c0603 	ldmdbeq	ip!, {r0, r1, r9, sl}
    1134:	7b030000 	blvc	c113c <SVC_stack_size+0xb113c>
    1138:	00000998 	muleq	r0, r8, r9
    113c:	03b82303 			; <UNDEFINED> instruction: 0x03b82303
    1140:	000b1206 	andeq	r1, fp, r6, lsl #4
    1144:	337d0300 	cmncc	sp, #0, 6
    1148:	03000000 	movweq	r0, #0
    114c:	0603c023 	streq	ip, [r3], -r3, lsr #32
    1150:	0000078d 	andeq	r0, r0, sp, lsl #15
    1154:	00337e03 	eorseq	r7, r3, r3, lsl #28
    1158:	23030000 	movwcs	r0, #12288	; 0x3000
    115c:	490603c4 	stmdbmi	r6, {r2, r6, r7, r8, r9}
    1160:	03000008 	movweq	r0, #8
    1164:	0000337f 	andeq	r3, r0, pc, ror r3
    1168:	c8230300 	stmdagt	r3!, {r8, r9}
    116c:	0a6e0603 	beq	1b82980 <R1_VE+0xb82980>
    1170:	80030000 	andhi	r0, r3, r0
    1174:	00000033 	andeq	r0, r0, r3, lsr r0
    1178:	03cc2303 	biceq	r2, ip, #201326592	; 0xc000000
    117c:	00079906 	andeq	r9, r7, r6, lsl #18
    1180:	33820300 	orrcc	r0, r2, #0, 6
    1184:	03000000 	movweq	r0, #0
    1188:	0603d023 	streq	sp, [r3], -r3, lsr #32
    118c:	00000648 	andeq	r0, r0, r8, asr #12
    1190:	00338303 	eorseq	r8, r3, r3, lsl #6
    1194:	23030000 	movwcs	r0, #12288	; 0x3000
    1198:	740603d4 	strvc	r0, [r6], #-980	; 0x3d4
    119c:	0300000a 	movweq	r0, #10
    11a0:	00099884 	andeq	r9, r9, r4, lsl #17
    11a4:	d8230300 	stmdale	r3!, {r8, r9}
    11a8:	0a7a0603 	beq	1e829bc <R1_VE+0xe829bc>
    11ac:	86030000 	strhi	r0, [r3], -r0
    11b0:	000009a8 	andeq	r0, r0, r8, lsr #19
    11b4:	03e02303 	mvneq	r2, #201326592	; 0xc000000
    11b8:	00062206 	andeq	r2, r6, r6, lsl #4
    11bc:	33880300 	orrcc	r0, r8, #0, 6
    11c0:	03000000 	movweq	r0, #0
    11c4:	06048023 	streq	r8, [r4], -r3, lsr #32
    11c8:	000006a6 	andeq	r0, r0, r6, lsr #13
    11cc:	00338903 	eorseq	r8, r3, r3, lsl #18
    11d0:	23030000 	movwcs	r0, #12288	; 0x3000
    11d4:	4f060484 	svcmi	0x00060484
    11d8:	03000009 	movweq	r0, #9
    11dc:	0000338a 	andeq	r3, r0, sl, lsl #7
    11e0:	88230300 	stmdahi	r3!, {r8, r9}
    11e4:	07720604 	ldrbeq	r0, [r2, -r4, lsl #12]!
    11e8:	8b030000 	blhi	c11f0 <SVC_stack_size+0xb11f0>
    11ec:	00000033 	andeq	r0, r0, r3, lsr r0
    11f0:	048c2303 	streq	r2, [ip], #771	; 0x303
    11f4:	00076206 	andeq	r6, r7, r6, lsl #4
    11f8:	338d0300 	orrcc	r0, sp, #0, 6
    11fc:	03000000 	movweq	r0, #0
    1200:	06049023 	streq	r9, [r4], -r3, lsr #32
    1204:	00000942 	andeq	r0, r0, r2, asr #18
    1208:	09818e03 	stmibeq	r1, {r0, r1, r9, sl, fp, pc}
    120c:	23030000 	movwcs	r0, #12288	; 0x3000
    1210:	39060494 	stmdbcc	r6, {r2, r4, r7, sl}
    1214:	03000004 	movweq	r0, #4
    1218:	00003390 	muleq	r0, r0, r3
    121c:	a0230300 	eorge	r0, r3, r0, lsl #6
    1220:	07e20604 	strbeq	r0, [r2, r4, lsl #12]!
    1224:	91030000 	mrsls	r0, (UNDEF: 3)
    1228:	00000033 	andeq	r0, r0, r3, lsr r0
    122c:	04a42303 	strteq	r2, [r4], #771	; 0x303
    1230:	0003ce06 	andeq	ip, r3, r6, lsl #28
    1234:	33920300 	orrscc	r0, r2, #0, 6
    1238:	03000000 	movweq	r0, #0
    123c:	0604a823 	streq	sl, [r4], -r3, lsr #16
    1240:	00000912 	andeq	r0, r0, r2, lsl r9
    1244:	00339303 	eorseq	r9, r3, r3, lsl #6
    1248:	23030000 	movwcs	r0, #12288	; 0x3000
    124c:	6d0604ac 	cfstrsvs	mvf0, [r6, #-688]	; 0xfffffd50
    1250:	0300000b 	movweq	r0, #11
    1254:	00003395 	muleq	r0, r5, r3
    1258:	b0230300 	eorlt	r0, r3, r0, lsl #6
    125c:	0b870604 	bleq	fe1c2a74 <vinform3+0x4b7b3068>
    1260:	96030000 	strls	r0, [r3], -r0
    1264:	00000981 	andeq	r0, r0, r1, lsl #19
    1268:	04b42303 	ldrteq	r2, [r4], #771	; 0x303
    126c:	0005d606 	andeq	sp, r5, r6, lsl #12
    1270:	33980300 	orrscc	r0, r8, #0, 6
    1274:	03000000 	movweq	r0, #0
    1278:	0604c023 	streq	ip, [r4], -r3, lsr #32
    127c:	00000888 	andeq	r0, r0, r8, lsl #17
    1280:	00339903 	eorseq	r9, r3, r3, lsl #18
    1284:	23030000 	movwcs	r0, #12288	; 0x3000
    1288:	d70604c4 	strle	r0, [r6, -r4, asr #9]
    128c:	03000007 	movweq	r0, #7
    1290:	0000339a 	muleq	r0, sl, r3
    1294:	c8230300 	stmdagt	r3!, {r8, r9}
    1298:	0ad30604 	beq	ff4c2ab0 <vinform3+0x4cab30a4>
    129c:	9b030000 	blls	c12a4 <SVC_stack_size+0xb12a4>
    12a0:	00000033 	andeq	r0, r0, r3, lsr r0
    12a4:	04cc2303 	strbeq	r2, [ip], #771	; 0x303
    12a8:	00092406 	andeq	r2, r9, r6, lsl #8
    12ac:	339d0300 	orrscc	r0, sp, #0, 6
    12b0:	03000000 	movweq	r0, #0
    12b4:	0604d023 	streq	sp, [r4], -r3, lsr #32
    12b8:	00000b8d 	andeq	r0, r0, sp, lsl #23
    12bc:	09819e03 	stmibeq	r1, {r0, r1, r9, sl, fp, ip, pc}
    12c0:	23030000 	movwcs	r0, #12288	; 0x3000
    12c4:	a10604d4 	ldrdge	r0, [r6, -r4]
    12c8:	03000009 	movweq	r0, #9
    12cc:	000033a0 	andeq	r3, r0, r0, lsr #7
    12d0:	e0230300 	eor	r0, r3, r0, lsl #6
    12d4:	0aa90604 	beq	fea42aec <vinform3+0x4c0330e0>
    12d8:	a1030000 	mrsge	r0, (UNDEF: 3)
    12dc:	00000033 	andeq	r0, r0, r3, lsr r0
    12e0:	04e42303 	strbteq	r2, [r4], #771	; 0x303
    12e4:	0006b006 	andeq	fp, r6, r6
    12e8:	33a20300 			; <UNDEFINED> instruction: 0x33a20300
    12ec:	03000000 	movweq	r0, #0
    12f0:	0604e823 	streq	lr, [r4], -r3, lsr #16
    12f4:	000004db 	ldrdeq	r0, [r0], -fp
    12f8:	0033a303 	eorseq	sl, r3, r3, lsl #6
    12fc:	23030000 	movwcs	r0, #12288	; 0x3000
    1300:	120604ec 	andne	r0, r6, #236, 8	; 0xec000000
    1304:	03000008 	movweq	r0, #8
    1308:	000033a5 	andeq	r3, r0, r5, lsr #7
    130c:	f0230300 			; <UNDEFINED> instruction: 0xf0230300
    1310:	0b380604 	bleq	e02b28 <fin+0x291028>
    1314:	a6030000 	strge	r0, [r3], -r0
    1318:	00000981 	andeq	r0, r0, r1, lsl #19
    131c:	04f42303 	ldrbteq	r2, [r4], #771	; 0x303
    1320:	000a3e06 	andeq	r3, sl, r6, lsl #28
    1324:	33a80300 			; <UNDEFINED> instruction: 0x33a80300
    1328:	03000000 	movweq	r0, #0
    132c:	06058023 	streq	r8, [r5], -r3, lsr #32
    1330:	00000b3e 	andeq	r0, r0, lr, lsr fp
    1334:	0033a903 	eorseq	sl, r3, r3, lsl #18
    1338:	23030000 	movwcs	r0, #12288	; 0x3000
    133c:	8e060584 	cfsh32hi	mvfx0, mvfx6, #-60
    1340:	03000004 	movweq	r0, #4
    1344:	000033aa 	andeq	r3, r0, sl, lsr #7
    1348:	88230300 	stmdahi	r3!, {r8, r9}
    134c:	0b460605 	bleq	1182b68 <R1_VE+0x182b68>
    1350:	ab030000 	blge	c1358 <SVC_stack_size+0xb1358>
    1354:	00000033 	andeq	r0, r0, r3, lsr r0
    1358:	058c2303 	streq	r2, [ip, #771]	; 0x303
    135c:	000af806 	andeq	pc, sl, r6, lsl #16
    1360:	b8ad0300 	stmialt	sp!, {r8, r9}
    1364:	03000009 	movweq	r0, #9
    1368:	06059023 	streq	r9, [r5], -r3, lsr #32
    136c:	00000959 	andeq	r0, r0, r9, asr r9
    1370:	0033af03 	eorseq	sl, r3, r3, lsl #30
    1374:	23030000 	movwcs	r0, #12288	; 0x3000
    1378:	2e061080 	cdpcs	0, 0, cr1, cr6, cr0, {4}
    137c:	03000009 	movweq	r0, #9
    1380:	000033b0 			; <UNDEFINED> instruction: 0x000033b0
    1384:	84230300 	strthi	r0, [r3], #-768	; 0x300
    1388:	0a8e0610 	beq	fe382bd0 <vinform3+0x4b9731c4>
    138c:	b1030000 	mrslt	r0, (UNDEF: 3)
    1390:	00000033 	andeq	r0, r0, r3, lsr r0
    1394:	10882303 	addne	r2, r8, r3, lsl #6
    1398:	0005f206 	andeq	pc, r5, r6, lsl #4
    139c:	33b20300 			; <UNDEFINED> instruction: 0x33b20300
    13a0:	03000000 	movweq	r0, #0
    13a4:	06108c23 	ldreq	r8, [r0], -r3, lsr #24
    13a8:	00000685 	andeq	r0, r0, r5, lsl #13
    13ac:	0033b403 	eorseq	fp, r3, r3, lsl #8
    13b0:	23030000 	movwcs	r0, #12288	; 0x3000
    13b4:	8d061090 	stchi	0, cr1, [r6, #-576]	; 0xfffffdc0
    13b8:	03000006 	movweq	r0, #6
    13bc:	000033b5 			; <UNDEFINED> instruction: 0x000033b5
    13c0:	94230300 	strtls	r0, [r3], #-768	; 0x300
    13c4:	09ac0610 	stmibeq	ip!, {r4, r9, sl}
    13c8:	b6030000 	strlt	r0, [r3], -r0
    13cc:	00000033 	andeq	r0, r0, r3, lsr r0
    13d0:	10982303 	addsne	r2, r8, r3, lsl #6
    13d4:	00090406 	andeq	r0, r9, r6, lsl #8
    13d8:	33b70300 			; <UNDEFINED> instruction: 0x33b70300
    13dc:	03000000 	movweq	r0, #0
    13e0:	06109c23 	ldreq	r9, [r0], -r3, lsr #24
    13e4:	0000090b 	andeq	r0, r0, fp, lsl #18
    13e8:	0033b903 	eorseq	fp, r3, r3, lsl #18
    13ec:	23030000 	movwcs	r0, #12288	; 0x3000
    13f0:	f60610a0 			; <UNDEFINED> instruction: 0xf60610a0
    13f4:	03000008 	movweq	r0, #8
    13f8:	000033ba 			; <UNDEFINED> instruction: 0x000033ba
    13fc:	a4230300 	strtge	r0, [r3], #-768	; 0x300
    1400:	04230610 	strteq	r0, [r3], #-1552	; 0x610
    1404:	bb030000 	bllt	c140c <SVC_stack_size+0xb140c>
    1408:	00000033 	andeq	r0, r0, r3, lsr r0
    140c:	10a82303 	adcne	r2, r8, r3, lsl #6
    1410:	000b0606 	andeq	r0, fp, r6, lsl #12
    1414:	33bc0300 			; <UNDEFINED> instruction: 0x33bc0300
    1418:	03000000 	movweq	r0, #0
    141c:	0610ac23 	ldreq	sl, [r0], -r3, lsr #24
    1420:	00000863 	andeq	r0, r0, r3, ror #16
    1424:	0033be03 	eorseq	fp, r3, r3, lsl #28
    1428:	23030000 	movwcs	r0, #12288	; 0x3000
    142c:	040610b0 	streq	r1, [r6], #-176	; 0xb0
    1430:	03000008 	movweq	r0, #8
    1434:	000033bf 			; <UNDEFINED> instruction: 0x000033bf
    1438:	b4230300 	strtlt	r0, [r3], #-768	; 0x300
    143c:	0b800610 	bleq	fe002c84 <vinform3+0x4b5f3278>
    1440:	c0030000 	andgt	r0, r3, r0
    1444:	00000033 	andeq	r0, r0, r3, lsr r0
    1448:	10b82303 	adcsne	r2, r8, r3, lsl #6
    144c:	000b0c06 	andeq	r0, fp, r6, lsl #24
    1450:	33c10300 	biccc	r0, r1, #0, 6
    1454:	03000000 	movweq	r0, #0
    1458:	0610bc23 	ldreq	fp, [r0], -r3, lsr #24
    145c:	00000b4c 	andeq	r0, r0, ip, asr #22
    1460:	09c9c303 	stmibeq	r9, {r0, r1, r8, r9, lr, pc}^
    1464:	23030000 	movwcs	r0, #12288	; 0x3000
    1468:	fe0610c0 	cdp2	0, 0, cr1, cr6, cr0, {6}
    146c:	03000003 	movweq	r0, #3
    1470:	000033c5 	andeq	r3, r0, r5, asr #7
    1474:	80230300 	eorhi	r0, r3, r0, lsl #6
    1478:	0ade0611 	beq	ff782cc4 <vinform3+0x4cd732b8>
    147c:	c6030000 	strgt	r0, [r3], -r0
    1480:	00000981 	andeq	r0, r0, r1, lsl #19
    1484:	11842303 	orrne	r2, r4, r3, lsl #6
    1488:	000b3206 	andeq	r3, fp, r6, lsl #4
    148c:	d9c80300 	stmible	r8, {r8, r9}^
    1490:	03000009 	movweq	r0, #9
    1494:	06119023 	ldreq	r9, [r1], -r3, lsr #32
    1498:	000007b5 			; <UNDEFINED> instruction: 0x000007b5
    149c:	0033ca03 	eorseq	ip, r3, r3, lsl #20
    14a0:	23030000 	movwcs	r0, #12288	; 0x3000
    14a4:	bf061280 	svclt	0x00061280
    14a8:	03000007 	movweq	r0, #7
    14ac:	000033cb 	andeq	r3, r0, fp, asr #7
    14b0:	84230300 	strthi	r0, [r3], #-768	; 0x300
    14b4:	044d0612 	strbeq	r0, [sp], #-1554	; 0x612
    14b8:	cc030000 	stcgt	0, cr0, [r3], {-0}
    14bc:	00000998 	muleq	r0, r8, r9
    14c0:	12882303 	addne	r2, r8, #201326592	; 0xc000000
    14c4:	0009fc06 	andeq	pc, r9, r6, lsl #24
    14c8:	33ce0300 	biccc	r0, lr, #0, 6
    14cc:	03000000 	movweq	r0, #0
    14d0:	06129023 	ldreq	r9, [r2], -r3, lsr #32
    14d4:	00000a9c 	muleq	r0, ip, sl
    14d8:	0033cf03 	eorseq	ip, r3, r3, lsl #30
    14dc:	23030000 	movwcs	r0, #12288	; 0x3000
    14e0:	13061294 	movwne	r1, #25236	; 0x6294
    14e4:	0300000a 	movweq	r0, #10
    14e8:	000033d0 	ldrdeq	r3, [r0], -r0
    14ec:	98230300 	stmdals	r3!, {r8, r9}
    14f0:	0ab40612 	beq	fed02d40 <vinform3+0x4c2f3334>
    14f4:	d1030000 	mrsle	r0, (UNDEF: 3)
    14f8:	00000033 	andeq	r0, r0, r3, lsr r0
    14fc:	129c2303 	addsne	r2, ip, #201326592	; 0xc000000
    1500:	0008ae06 	andeq	sl, r8, r6, lsl #28
    1504:	33d30300 	bicscc	r0, r3, #0, 6
    1508:	03000000 	movweq	r0, #0
    150c:	0612a023 	ldreq	sl, [r2], -r3, lsr #32
    1510:	00000ac1 	andeq	r0, r0, r1, asr #21
    1514:	0033d403 	eorseq	sp, r3, r3, lsl #8
    1518:	23030000 	movwcs	r0, #12288	; 0x3000
    151c:	530612a4 	movwpl	r1, #25252	; 0x62a4
    1520:	03000004 	movweq	r0, #4
    1524:	000998d5 	ldrdeq	r9, [r9], -r5
    1528:	a8230300 	stmdage	r3!, {r8, r9}
    152c:	03c80612 	biceq	r0, r8, #18874368	; 0x1200000
    1530:	d7030000 	strle	r0, [r3, -r0]
    1534:	00000033 	andeq	r0, r0, r3, lsr r0
    1538:	12b02303 	adcsne	r2, r0, #201326592	; 0xc000000
    153c:	00045906 	andeq	r5, r4, r6, lsl #18
    1540:	81d80300 	bicshi	r0, r8, r0, lsl #6
    1544:	03000009 	movweq	r0, #9
    1548:	0012b423 	andseq	fp, r2, r3, lsr #8
    154c:	00003307 	andeq	r3, r0, r7, lsl #6
    1550:	00099100 	andeq	r9, r9, r0, lsl #2
    1554:	09910800 	ldmibeq	r1, {fp}
    1558:	00020000 	andeq	r0, r2, r0
    155c:	bb070402 	bllt	1c256c <SVC_stack_size+0x1b256c>
    1560:	07000001 	streq	r0, [r0, -r1]
    1564:	00000033 	andeq	r0, r0, r3, lsr r0
    1568:	000009a8 	andeq	r0, r0, r8, lsr #19
    156c:	00099108 	andeq	r9, r9, r8, lsl #2
    1570:	07000100 	streq	r0, [r0, -r0, lsl #2]
    1574:	00000033 	andeq	r0, r0, r3, lsr r0
    1578:	000009b8 			; <UNDEFINED> instruction: 0x000009b8
    157c:	00099108 	andeq	r9, r9, r8, lsl #2
    1580:	07000700 	streq	r0, [r0, -r0, lsl #14]
    1584:	00000033 	andeq	r0, r0, r3, lsr r0
    1588:	000009c9 	andeq	r0, r0, r9, asr #19
    158c:	00099109 	andeq	r9, r9, r9, lsl #2
    1590:	00015b00 	andeq	r5, r1, r0, lsl #22
    1594:	00003307 	andeq	r3, r0, r7, lsl #6
    1598:	0009d900 	andeq	sp, r9, r0, lsl #18
    159c:	09910800 	ldmibeq	r1, {fp}
    15a0:	000f0000 	andeq	r0, pc, r0
    15a4:	00003307 	andeq	r3, r0, r7, lsl #6
    15a8:	0009e900 	andeq	lr, r9, r0, lsl #18
    15ac:	09910800 	ldmibeq	r1, {fp}
    15b0:	001b0000 	andseq	r0, fp, r0
    15b4:	00096e05 	andeq	r6, r9, r5, lsl #28
    15b8:	040a2000 	streq	r2, [sl], #-0
    15bc:	000d4c09 	andeq	r4, sp, r9, lsl #24
    15c0:	081c0600 	ldmdaeq	ip, {r9, sl}
    15c4:	0b040000 	bleq	1015cc <SVC_stack_size+0xf15cc>
    15c8:	00000033 	andeq	r0, r0, r3, lsr r0
    15cc:	06002302 	streq	r2, [r0], -r2, lsl #6
    15d0:	00000a09 	andeq	r0, r0, r9, lsl #20
    15d4:	00330c04 	eorseq	r0, r3, r4, lsl #24
    15d8:	23020000 	movwcs	r0, #8192	; 0x2000
    15dc:	052e0604 	streq	r0, [lr, #-1540]!	; 0x604
    15e0:	0d040000 	stceq	0, cr0, [r4, #-0]
    15e4:	00000033 	andeq	r0, r0, r3, lsr r0
    15e8:	06082302 	streq	r2, [r8], -r2, lsl #6
    15ec:	000007c9 	andeq	r0, r0, r9, asr #15
    15f0:	00330e04 	eorseq	r0, r3, r4, lsl #28
    15f4:	23020000 	movwcs	r0, #8192	; 0x2000
    15f8:	04c8060c 	strbeq	r0, [r8], #1548	; 0x60c
    15fc:	10040000 	andne	r0, r4, r0
    1600:	00000033 	andeq	r0, r0, r3, lsr r0
    1604:	06102302 	ldreq	r2, [r0], -r2, lsl #6
    1608:	000004ed 	andeq	r0, r0, sp, ror #9
    160c:	00331104 	eorseq	r1, r3, r4, lsl #2
    1610:	23020000 	movwcs	r0, #8192	; 0x2000
    1614:	08930614 	ldmeq	r3, {r2, r4, r9, sl}
    1618:	12040000 	andne	r0, r4, #0
    161c:	00000033 	andeq	r0, r0, r3, lsr r0
    1620:	06182302 	ldreq	r2, [r8], -r2, lsl #6
    1624:	000008ee 	andeq	r0, r0, lr, ror #17
    1628:	00331304 	eorseq	r1, r3, r4, lsl #6
    162c:	23020000 	movwcs	r0, #8192	; 0x2000
    1630:	04ab061c 	strteq	r0, [fp], #1564	; 0x61c
    1634:	15040000 	strne	r0, [r4, #-0]
    1638:	00000033 	andeq	r0, r0, r3, lsr r0
    163c:	06202302 	strteq	r2, [r0], -r2, lsl #6
    1640:	0000070c 	andeq	r0, r0, ip, lsl #14
    1644:	00331604 	eorseq	r1, r3, r4, lsl #12
    1648:	23020000 	movwcs	r0, #8192	; 0x2000
    164c:	07150624 	ldreq	r0, [r5, -r4, lsr #12]
    1650:	17040000 	strne	r0, [r4, -r0]
    1654:	00000033 	andeq	r0, r0, r3, lsr r0
    1658:	06282302 	strteq	r2, [r8], -r2, lsl #6
    165c:	000009e3 	andeq	r0, r0, r3, ror #19
    1660:	00331804 	eorseq	r1, r3, r4, lsl #16
    1664:	23020000 	movwcs	r0, #8192	; 0x2000
    1668:	04d1062c 	ldrbeq	r0, [r1], #1580	; 0x62c
    166c:	1a040000 	bne	101674 <SVC_stack_size+0xf1674>
    1670:	00000033 	andeq	r0, r0, r3, lsr r0
    1674:	06302302 	ldrteq	r2, [r0], -r2, lsl #6
    1678:	0000069c 	muleq	r0, ip, r6
    167c:	00331b04 	eorseq	r1, r3, r4, lsl #22
    1680:	23020000 	movwcs	r0, #8192	; 0x2000
    1684:	0a200634 	beq	802f5c <SVC_stack_size+0x7f2f5c>
    1688:	1c040000 	stcne	0, cr0, [r4], {-0}
    168c:	00000033 	andeq	r0, r0, r3, lsr r0
    1690:	06382302 	ldrteq	r2, [r8], -r2, lsl #6
    1694:	000007d2 	ldrdeq	r0, [r0], -r2
    1698:	00331d04 	eorseq	r1, r3, r4, lsl #26
    169c:	23020000 	movwcs	r0, #8192	; 0x2000
    16a0:	0bab063c 	bleq	feac2f98 <vinform3+0x4c0b358c>
    16a4:	1f040000 	svcne	0x00040000
    16a8:	00000d4c 	andeq	r0, r0, ip, asr #26
    16ac:	06402302 	strbeq	r2, [r0], -r2, lsl #6
    16b0:	000008a5 	andeq	r0, r0, r5, lsr #17
    16b4:	00332104 	eorseq	r2, r3, r4, lsl #2
    16b8:	23030000 	movwcs	r0, #12288	; 0x3000
    16bc:	26060280 	strcs	r0, [r6], -r0, lsl #5
    16c0:	04000008 	streq	r0, [r0], #-8
    16c4:	00003322 	andeq	r3, r0, r2, lsr #6
    16c8:	84230300 	strthi	r0, [r3], #-768	; 0x300
    16cc:	08b80602 	ldmeq	r8!, {r1, r9, sl}
    16d0:	23040000 	movwcs	r0, #16384	; 0x4000
    16d4:	00000033 	andeq	r0, r0, r3, lsr r0
    16d8:	02882303 	addeq	r2, r8, #201326592	; 0xc000000
    16dc:	000bb006 	andeq	fp, fp, r6
    16e0:	33240400 	teqcc	r4, #0, 8
    16e4:	03000000 	movweq	r0, #0
    16e8:	06028c23 	streq	r8, [r2], -r3, lsr #24
    16ec:	000007a4 	andeq	r0, r0, r4, lsr #15
    16f0:	00332604 	eorseq	r2, r3, r4, lsl #12
    16f4:	23030000 	movwcs	r0, #12288	; 0x3000
    16f8:	81060290 			; <UNDEFINED> instruction: 0x81060290
    16fc:	04000008 	streq	r0, [r0], #-8
    1700:	00003327 	andeq	r3, r0, r7, lsr #6
    1704:	94230300 	strtls	r0, [r3], #-768	; 0x300
    1708:	077c0602 	ldrbeq	r0, [ip, -r2, lsl #12]!
    170c:	28040000 	stmdacs	r4, {}	; <UNPREDICTABLE>
    1710:	00000033 	andeq	r0, r0, r3, lsr r0
    1714:	02982303 	addseq	r2, r8, #201326592	; 0xc000000
    1718:	000bb506 	andeq	fp, fp, r6, lsl #10
    171c:	33290400 	teqcc	r9, #0, 8
    1720:	03000000 	movweq	r0, #0
    1724:	06029c23 	streq	r9, [r2], -r3, lsr #24
    1728:	0000040e 	andeq	r0, r0, lr, lsl #8
    172c:	00332b04 	eorseq	r2, r3, r4, lsl #22
    1730:	23030000 	movwcs	r0, #12288	; 0x3000
    1734:	040602a0 	streq	r0, [r6], #-672	; 0x2a0
    1738:	04000005 	streq	r0, [r0], #-5
    173c:	0000332c 	andeq	r3, r0, ip, lsr #6
    1740:	a4230300 	strtge	r0, [r3], #-768	; 0x300
    1744:	05120602 	ldreq	r0, [r2, #-1538]	; 0x602
    1748:	2d040000 	stccs	0, cr0, [r4, #-0]
    174c:	00000033 	andeq	r0, r0, r3, lsr r0
    1750:	02a82303 	adceq	r2, r8, #201326592	; 0xc000000
    1754:	00045f06 	andeq	r5, r4, r6, lsl #30
    1758:	332e0400 	teqcc	lr, #0, 8
    175c:	03000000 	movweq	r0, #0
    1760:	0602ac23 	streq	sl, [r2], -r3, lsr #24
    1764:	00000bba 			; <UNDEFINED> instruction: 0x00000bba
    1768:	0d5c3004 	ldcleq	0, cr3, [ip, #-16]
    176c:	23030000 	movwcs	r0, #12288	; 0x3000
    1770:	bf0602b0 	svclt	0x000602b0
    1774:	0400000b 	streq	r0, [r0], #-11
    1778:	00003332 	andeq	r3, r0, r2, lsr r3
    177c:	80230300 	eorhi	r0, r3, r0, lsl #6
    1780:	089d0610 	ldmeq	sp, {r4, r9, sl}
    1784:	33040000 	movwcc	r0, #16384	; 0x4000
    1788:	00000033 	andeq	r0, r0, r3, lsr r0
    178c:	10842303 	addne	r2, r4, r3, lsl #6
    1790:	0004be06 	andeq	fp, r4, r6, lsl #28
    1794:	33340400 	teqcc	r4, #0, 8
    1798:	03000000 	movweq	r0, #0
    179c:	06108823 	ldreq	r8, [r0], -r3, lsr #16
    17a0:	00000bc4 	andeq	r0, r0, r4, asr #23
    17a4:	00333504 	eorseq	r3, r3, r4, lsl #10
    17a8:	23030000 	movwcs	r0, #12288	; 0x3000
    17ac:	7106108c 	smlabbvc	r6, ip, r0, r1
    17b0:	04000006 	streq	r0, [r0], #-6
    17b4:	00003337 	andeq	r3, r0, r7, lsr r3
    17b8:	90230300 	eorls	r0, r3, r0, lsl #6
    17bc:	05730610 	ldrbeq	r0, [r3, #-1552]!	; 0x610
    17c0:	38040000 	stmdacc	r4, {}	; <UNPREDICTABLE>
    17c4:	00000033 	andeq	r0, r0, r3, lsr r0
    17c8:	10942303 	addsne	r2, r4, r3, lsl #6
    17cc:	0009f206 	andeq	pc, r9, r6, lsl #4
    17d0:	33390400 	teqcc	r9, #0, 8
    17d4:	03000000 	movweq	r0, #0
    17d8:	06109823 	ldreq	r9, [r0], -r3, lsr #16
    17dc:	00000bc9 	andeq	r0, r0, r9, asr #23
    17e0:	00333a04 	eorseq	r3, r3, r4, lsl #20
    17e4:	23030000 	movwcs	r0, #12288	; 0x3000
    17e8:	1a06109c 	bne	185a60 <SVC_stack_size+0x175a60>
    17ec:	04000004 	streq	r0, [r0], #-4
    17f0:	0000333c 	andeq	r3, r0, ip, lsr r3
    17f4:	a0230300 	eorge	r0, r3, r0, lsl #6
    17f8:	09ba0610 	ldmibeq	sl!, {r4, r9, sl}
    17fc:	3d040000 	stccc	0, cr0, [r4, #-0]
    1800:	00000033 	andeq	r0, r0, r3, lsr r0
    1804:	10a42303 	adcne	r2, r4, r3, lsl #6
    1808:	0003b806 	andeq	fp, r3, r6, lsl #16
    180c:	333e0400 	teqcc	lr, #0, 8
    1810:	03000000 	movweq	r0, #0
    1814:	0610a823 	ldreq	sl, [r0], -r3, lsr #16
    1818:	0000086a 	andeq	r0, r0, sl, ror #16
    181c:	00333f04 	eorseq	r3, r3, r4, lsl #30
    1820:	23030000 	movwcs	r0, #12288	; 0x3000
    1824:	9c0610ac 	stcls	0, cr1, [r6], {172}	; 0xac
    1828:	04000005 	streq	r0, [r0], #-5
    182c:	00003341 	andeq	r3, r0, r1, asr #6
    1830:	b0230300 	eorlt	r0, r3, r0, lsl #6
    1834:	0bce0610 	bleq	ff38307c <vinform3+0x4c973670>
    1838:	42040000 	andmi	r0, r4, #0
    183c:	00000981 	andeq	r0, r0, r1, lsl #19
    1840:	10b42303 	adcsne	r2, r4, r3, lsl #6
    1844:	000bd306 	andeq	sp, fp, r6, lsl #6
    1848:	4c440400 	cfstrdmi	mvd0, [r4], {-0}
    184c:	0300000d 	movweq	r0, #13
    1850:	0610c023 	ldreq	ip, [r0], -r3, lsr #32
    1854:	0000053f 	andeq	r0, r0, pc, lsr r5
    1858:	00334604 	eorseq	r4, r3, r4, lsl #12
    185c:	23030000 	movwcs	r0, #12288	; 0x3000
    1860:	8a061280 	bhi	186268 <SVC_stack_size+0x176268>
    1864:	04000009 	streq	r0, [r0], #-9
    1868:	00003347 	andeq	r3, r0, r7, asr #6
    186c:	84230300 	strthi	r0, [r3], #-768	; 0x300
    1870:	08750612 	ldmdaeq	r5!, {r1, r4, r9, sl}^
    1874:	48040000 	stmdami	r4, {}	; <UNPREDICTABLE>
    1878:	00000033 	andeq	r0, r0, r3, lsr r0
    187c:	12882303 	addne	r2, r8, #201326592	; 0xc000000
    1880:	0003f106 	andeq	pc, r3, r6, lsl #2
    1884:	33490400 	movtcc	r0, #37888	; 0x9400
    1888:	03000000 	movweq	r0, #0
    188c:	06128c23 	ldreq	r8, [r2], -r3, lsr #24
    1890:	00000a47 	andeq	r0, r0, r7, asr #20
    1894:	0d6d4b04 	vpusheq	{d20-d21}
    1898:	23030000 	movwcs	r0, #12288	; 0x3000
    189c:	bb061290 	bllt	1862e4 <SVC_stack_size+0x1762e4>
    18a0:	04000006 	streq	r0, [r0], #-6
    18a4:	0000334d 	andeq	r3, r0, sp, asr #6
    18a8:	80230300 	eorhi	r0, r3, r0, lsl #6
    18ac:	06c30614 			; <UNDEFINED> instruction: 0x06c30614
    18b0:	4e040000 	cdpmi	0, 0, cr0, cr4, cr0, {0}
    18b4:	00000033 	andeq	r0, r0, r3, lsr r0
    18b8:	14842303 	strne	r2, [r4], #771	; 0x303
    18bc:	0006cb06 	andeq	ip, r6, r6, lsl #22
    18c0:	334f0400 	movtcc	r0, #62464	; 0xf400
    18c4:	03000000 	movweq	r0, #0
    18c8:	06148823 	ldreq	r8, [r4], -r3, lsr #16
    18cc:	000006d3 	ldrdeq	r0, [r0], -r3
    18d0:	00335004 	eorseq	r5, r3, r4
    18d4:	23030000 	movwcs	r0, #12288	; 0x3000
    18d8:	db06148c 	blle	186b10 <SVC_stack_size+0x176b10>
    18dc:	04000006 	streq	r0, [r0], #-6
    18e0:	00003352 	andeq	r3, r0, r2, asr r3
    18e4:	90230300 	eorls	r0, r3, r0, lsl #6
    18e8:	06e30614 	usateq	r0, #3, r4, lsl #12
    18ec:	53040000 	movwpl	r0, #16384	; 0x4000
    18f0:	00000033 	andeq	r0, r0, r3, lsr r0
    18f4:	14942303 	ldrne	r2, [r4], #771	; 0x303
    18f8:	0006eb06 	andeq	lr, r6, r6, lsl #22
    18fc:	33540400 	cmpcc	r4, #0, 8
    1900:	03000000 	movweq	r0, #0
    1904:	06149823 	ldreq	r9, [r4], -r3, lsr #16
    1908:	000006f3 	strdeq	r0, [r0], -r3
    190c:	00335504 	eorseq	r5, r3, r4, lsl #10
    1910:	23030000 	movwcs	r0, #12288	; 0x3000
    1914:	0700149c 			; <UNDEFINED> instruction: 0x0700149c
    1918:	00000033 	andeq	r0, r0, r3, lsr r0
    191c:	00000d5c 	andeq	r0, r0, ip, asr sp
    1920:	00099108 	andeq	r9, r9, r8, lsl #2
    1924:	07002f00 	streq	r2, [r0, -r0, lsl #30]
    1928:	00000033 	andeq	r0, r0, r3, lsr r0
    192c:	00000d6d 	andeq	r0, r0, sp, ror #26
    1930:	00099109 	andeq	r9, r9, r9, lsl #2
    1934:	0001b300 	andeq	fp, r1, r0, lsl #6
    1938:	00003307 	andeq	r3, r0, r7, lsl #6
    193c:	000d7d00 	andeq	r7, sp, r0, lsl #26
    1940:	09910800 	ldmibeq	r1, {fp}
    1944:	003b0000 	eorseq	r0, fp, r0
    1948:	00083b0a 	andeq	r3, r8, sl, lsl #22
    194c:	58053c00 	stmdapl	r5, {sl, fp, ip, sp}
    1950:	00000eb0 			; <UNDEFINED> instruction: 0x00000eb0
    1954:	000b5906 	andeq	r5, fp, r6, lsl #18
    1958:	335a0500 	cmpcc	sl, #0, 10
    195c:	02000000 	andeq	r0, r0, #0
    1960:	54060023 	strpl	r0, [r6], #-35	; 0x23
    1964:	05000008 	streq	r0, [r0, #-8]
    1968:	0000335b 	andeq	r3, r0, fp, asr r3
    196c:	04230200 	strteq	r0, [r3], #-512	; 0x200
    1970:	0008c106 	andeq	ip, r8, r6, lsl #2
    1974:	335c0500 	cmpcc	ip, #0, 10
    1978:	02000000 	andeq	r0, r0, #0
    197c:	f7060823 			; <UNDEFINED> instruction: 0xf7060823
    1980:	05000004 	streq	r0, [r0, #-4]
    1984:	0000335d 	andeq	r3, r0, sp, asr r3
    1988:	0c230200 	sfmeq	f0, 4, [r3], #-0
    198c:	0007ad06 	andeq	sl, r7, r6, lsl #26
    1990:	335e0500 	cmpcc	lr, #0, 10
    1994:	02000000 	andeq	r0, r0, #0
    1998:	31061023 	tstcc	r6, r3, lsr #32
    199c:	05000004 	streq	r0, [r0, #-4]
    19a0:	0000335f 	andeq	r3, r0, pc, asr r3
    19a4:	14230200 	strtne	r0, [r3], #-512	; 0x200
    19a8:	00094806 	andeq	r4, r9, r6, lsl #16
    19ac:	33600500 	cmncc	r0, #0, 10
    19b0:	02000000 	andeq	r0, r0, #0
    19b4:	fd061823 	stc2	8, cr1, [r6, #-140]	; 0xffffff74
    19b8:	05000007 	streq	r0, [r0, #-7]
    19bc:	00003361 	andeq	r3, r0, r1, ror #6
    19c0:	1c230200 	sfmne	f0, 4, [r3], #-0
    19c4:	00091f06 	andeq	r1, r9, r6, lsl #30
    19c8:	656e0500 	strbvs	r0, [lr, #-1280]!	; 0x500
    19cc:	02000000 	andeq	r0, r0, #0
    19d0:	cb062023 	blgt	189a64 <SVC_stack_size+0x179a64>
    19d4:	0500000a 	streq	r0, [r0, #-10]
    19d8:	0000656f 	andeq	r6, r0, pc, ror #10
    19dc:	21230200 	teqcs	r3, r0, lsl #4
    19e0:	00054606 	andeq	r4, r5, r6, lsl #12
    19e4:	65700500 	ldrbvs	r0, [r0, #-1280]!	; 0x500
    19e8:	02000000 	andeq	r0, r0, #0
    19ec:	4f062223 	svcmi	0x00062223
    19f0:	05000005 	streq	r0, [r0, #-5]
    19f4:	00006571 	andeq	r6, r0, r1, ror r5
    19f8:	23230200 	teqcs	r3, #0, 4
    19fc:	0003c306 	andeq	ip, r3, r6, lsl #6
    1a00:	65720500 	ldrbvs	r0, [r2, #-1280]!	; 0x500
    1a04:	02000000 	andeq	r0, r0, #0
    1a08:	58062423 	stmdapl	r6, {r0, r1, r5, sl, sp}
    1a0c:	05000005 	streq	r0, [r0, #-5]
    1a10:	00006573 	andeq	r6, r0, r3, ror r5
    1a14:	25230200 	strcs	r0, [r3, #-512]!	; 0x200
    1a18:	00056106 	andeq	r6, r5, r6, lsl #2
    1a1c:	65740500 	ldrbvs	r0, [r4, #-1280]!	; 0x500
    1a20:	02000000 	andeq	r0, r0, #0
    1a24:	6a062623 	bvs	18b2b8 <SVC_stack_size+0x17b2b8>
    1a28:	05000005 	streq	r0, [r0, #-5]
    1a2c:	00006575 	andeq	r6, r0, r5, ror r5
    1a30:	27230200 	strcs	r0, [r3, -r0, lsl #4]!
    1a34:	0005b406 	andeq	fp, r5, r6, lsl #8
    1a38:	33770500 	cmncc	r7, #0, 10
    1a3c:	02000000 	andeq	r0, r0, #0
    1a40:	59062823 	stmdbpl	r6, {r0, r1, r5, fp, sp}
    1a44:	05000008 	streq	r0, [r0, #-8]
    1a48:	00003378 	andeq	r3, r0, r8, ror r3
    1a4c:	2c230200 	sfmcs	f0, 4, [r3], #-0
    1a50:	00069506 	andeq	r9, r6, r6, lsl #10
    1a54:	33790500 	cmncc	r9, #0, 10
    1a58:	02000000 	andeq	r0, r0, #0
    1a5c:	40063023 	andmi	r3, r6, r3, lsr #32
    1a60:	05000006 	streq	r0, [r0, #-6]
    1a64:	0000337a 	andeq	r3, r0, sl, ror r3
    1a68:	34230200 	strtcc	r0, [r3], #-512	; 0x200
    1a6c:	0005cf06 	andeq	ip, r5, r6, lsl #30
    1a70:	337b0500 	cmncc	fp, #0, 10
    1a74:	02000000 	andeq	r0, r0, #0
    1a78:	0b003823 	bleq	fb0c <IRQ_stack_size+0xeb0c>
    1a7c:	00058601 	andeq	r8, r5, r1, lsl #12
    1a80:	01320100 	teqeq	r2, r0, lsl #2
    1a84:	000ed501 	andeq	sp, lr, r1, lsl #10
    1a88:	049f0c00 	ldreq	r0, [pc], #3072	; 1a90 <IRQ_stack_size+0xa90>
    1a8c:	32010000 	andcc	r0, r1, #0
    1a90:	00000065 	andeq	r0, r0, r5, rrx
    1a94:	000bee0d 	andeq	lr, fp, sp, lsl #28
    1a98:	33340100 	teqcc	r4, #0, 2
    1a9c:	00000000 	andeq	r0, r0, r0
    1aa0:	0be4010e 	bleq	ff901ee0 <vinform3+0x4cef24d4>
    1aa4:	1c010000 	stcne	0, cr0, [r1], {-0}
    1aa8:	00006501 	andeq	r6, r0, r1, lsl #10
    1aac:	00088c00 	andeq	r8, r8, r0, lsl #24
    1ab0:	0008ac0c 	andeq	sl, r8, ip, lsl #24
    1ab4:	007d020c 	rsbseq	r0, sp, ip, lsl #4
    1ab8:	000f0001 	andeq	r0, pc, r1
    1abc:	0bee0f00 	bleq	ffb856c4 <vinform3+0x4d175cb8>
    1ac0:	1e010000 	cdpne	0, 0, cr0, cr1, cr0, {0}
    1ac4:	00000033 	andeq	r0, r0, r3, lsr r0
    1ac8:	0e005301 	cdpeq	3, 0, cr5, cr0, cr1, {0}
    1acc:	00049a01 	andeq	r9, r4, r1, lsl #20
    1ad0:	01260100 	teqeq	r6, r0, lsl #2
    1ad4:	00000089 	andeq	r0, r0, r9, lsl #1
    1ad8:	0c0008ac 	stceq	8, cr0, [r0], {172}	; 0xac
    1adc:	0c0008d4 	stceq	8, cr0, [r0], {212}	; 0xd4
    1ae0:	01007d02 	tsteq	r0, r2, lsl #26
    1ae4:	00000f3c 	andeq	r0, r0, ip, lsr pc
    1ae8:	00049f10 	andeq	r9, r4, r0, lsl pc
    1aec:	3c260100 	stfccs	f0, [r6], #-0
    1af0:	f100000f 	cps	#15
    1af4:	11000005 	tstne	r0, r5
    1af8:	00000bee 	andeq	r0, r0, lr, ror #23
    1afc:	00332801 	eorseq	r2, r3, r1, lsl #16
    1b00:	06120000 	ldreq	r0, [r2], -r0
    1b04:	12000000 	andne	r0, r0, #0
    1b08:	00006504 	andeq	r6, r0, r4, lsl #10
    1b0c:	0eb01300 	cdpeq	3, 11, cr1, cr0, cr0, {0}
    1b10:	08d40000 	ldmeq	r4, {}^	; <UNPREDICTABLE>
    1b14:	08fc0c00 	ldmeq	ip!, {sl, fp}^
    1b18:	7d020c00 	stcvc	12, cr0, [r2, #-0]
    1b1c:	0f680100 	svceq	0x00680100
    1b20:	be140000 	cdplt	0, 1, cr0, cr4, cr0, {0}
    1b24:	0100000e 	tsteq	r0, lr
    1b28:	0ec91550 	mcreq	5, 6, r1, cr9, cr0, {2}
    1b2c:	06250000 	strteq	r0, [r5], -r0
    1b30:	16000000 	strne	r0, [r0], -r0
    1b34:	00035b01 	andeq	r5, r3, r1, lsl #22
    1b38:	01400100 	mrseq	r0, (UNDEF: 80)
    1b3c:	0c0008fc 	stceq	8, cr0, [r0], {252}	; 0xfc
    1b40:	0c00093c 	stceq	9, cr0, [r0], {60}	; 0x3c
    1b44:	01007d02 	tsteq	r0, r2, lsl #26
    1b48:	00000fc6 	andeq	r0, r0, r6, asr #31
    1b4c:	72747317 	rsbsvc	r7, r4, #1543503872	; 0x5c000000
    1b50:	3c400100 	stfcce	f0, [r0], {-0}
    1b54:	3800000f 	stmdacc	r0, {r0, r1, r2, r3}
    1b58:	18000006 	stmdane	r0, {r1, r2}
    1b5c:	42010069 	andmi	r0, r1, #105	; 0x69
    1b60:	00000033 	andeq	r0, r0, r3, lsr r0
    1b64:	00000659 	andeq	r0, r0, r9, asr r6
    1b68:	000eb019 	andeq	fp, lr, r9, lsl r0
    1b6c:	00091000 	andeq	r1, r9, r0
    1b70:	0009280c 	andeq	r2, r9, ip, lsl #16
    1b74:	1a45010c 	bne	1141fac <R1_VE+0x141fac>
    1b78:	00000ebe 			; <UNDEFINED> instruction: 0x00000ebe
    1b7c:	0009101b 	andeq	r1, r9, fp, lsl r0
    1b80:	0009280c 	andeq	r2, r9, ip, lsl #16
    1b84:	0ec9150c 	cdpeq	5, 12, cr1, cr9, cr12, {0}
    1b88:	066d0000 	strbteq	r0, [sp], -r0
    1b8c:	00000000 	andeq	r0, r0, r0
    1b90:	ce010e00 	cdpgt	14, 0, cr0, cr1, cr0, {0}
    1b94:	01000008 	tsteq	r0, r8
    1b98:	0089014e 	addeq	r0, r9, lr, asr #2
    1b9c:	093c0000 	ldmdbeq	ip!, {}	; <UNPREDICTABLE>
    1ba0:	0a080c00 	beq	204ba8 <SVC_stack_size+0x1f4ba8>
    1ba4:	7d020c00 	stcvc	12, cr0, [r2, #-0]
    1ba8:	0ff30100 	svceq	0x00f30100
    1bac:	b1110000 	tstlt	r1, r0
    1bb0:	01000000 	mrseq	r0, (UNDEF: 0)
    1bb4:	00003350 	andeq	r3, r0, r0, asr r3
    1bb8:	00068000 	andeq	r8, r6, r0
    1bbc:	6b1c0000 	blvs	701bc4 <SVC_stack_size+0x6f1bc4>
    1bc0:	01000009 	tsteq	r0, r9
    1bc4:	00100514 	andseq	r0, r0, r4, lsl r5
    1bc8:	03050100 	movweq	r0, #20736	; 0x5100
    1bcc:	0c000c18 	stceq	12, cr0, [r0], {24}
    1bd0:	100b0412 	andne	r0, fp, r2, lsl r4
    1bd4:	e91d0000 	ldmdb	sp, {}	; <UNPREDICTABLE>
    1bd8:	1c000009 	stcne	0, cr0, [r0], {9}
    1bdc:	00000bd8 	ldrdeq	r0, [r0], -r8
    1be0:	10221501 	eorne	r1, r2, r1, lsl #10
    1be4:	05010000 	streq	r0, [r1, #-0]
    1be8:	000c2003 	andeq	r2, ip, r3
    1bec:	2804120c 	stmdacs	r4, {r2, r3, r9, ip}
    1bf0:	1d000010 	stcne	0, cr0, [r0, #-64]	; 0xffffffc0
    1bf4:	00000d7d 	andeq	r0, r0, sp, ror sp
    1bf8:	00082f1c 	andeq	r2, r8, ip, lsl pc
    1bfc:	3f160100 	svccc	0x00160100
    1c00:	01000010 	tsteq	r0, r0, lsl r0
    1c04:	0c240305 	stceq	3, cr0, [r4], #-20	; 0xffffffec
    1c08:	04120c00 	ldreq	r0, [r2], #-3072	; 0xc00
    1c0c:	00001045 	andeq	r1, r0, r5, asr #32
    1c10:	0000941d 	andeq	r9, r0, sp, lsl r4
    1c14:	046c1c00 	strbteq	r1, [ip], #-3072	; 0xc00
    1c18:	18010000 	stmdane	r1, {}	; <UNPREDICTABLE>
    1c1c:	00000045 	andeq	r0, r0, r5, asr #32
    1c20:	14030501 	strne	r0, [r3], #-1281	; 0x501
    1c24:	1c0c000c 	stcne	0, cr0, [ip], {12}
    1c28:	0000065b 	andeq	r0, r0, fp, asr r6
    1c2c:	00451901 	subeq	r1, r5, r1, lsl #18
    1c30:	05010000 	streq	r0, [r1, #-0]
    1c34:	000c1c03 	andeq	r1, ip, r3, lsl #24
    1c38:	03db1c0c 	bicseq	r1, fp, #12, 24	; 0xc00
    1c3c:	1a010000 	bne	41c44 <SVC_stack_size+0x31c44>
    1c40:	00000045 	andeq	r0, r0, r5, asr #32
    1c44:	16030501 	strne	r0, [r3], -r1, lsl #10
    1c48:	000c000c 	andeq	r0, ip, ip
    1c4c:	00000ce8 	andeq	r0, r0, r8, ror #25
    1c50:	04e90002 	strbteq	r0, [r9], #2
    1c54:	01040000 	mrseq	r0, (UNDEF: 4)
    1c58:	00000203 	andeq	r0, r0, r3, lsl #4
    1c5c:	000c1101 	andeq	r1, ip, r1, lsl #2
    1c60:	00016100 	andeq	r6, r1, r0, lsl #2
    1c64:	0001a800 	andeq	sl, r1, r0, lsl #16
	...
    1c70:	00042f00 	andeq	r2, r4, r0, lsl #30
    1c74:	07080200 	streq	r0, [r8, -r0, lsl #4]
    1c78:	0000012f 	andeq	r0, r0, pc, lsr #2
    1c7c:	c4050802 	strgt	r0, [r5], #-2050	; 0x802
    1c80:	03000001 	movweq	r0, #1
    1c84:	00000246 	andeq	r0, r0, r6, asr #4
    1c88:	00422d02 	subeq	r2, r2, r2, lsl #26
    1c8c:	04020000 	streq	r0, [r2], #-0
    1c90:	00013907 	andeq	r3, r1, r7, lsl #18
    1c94:	067c0300 	ldrbteq	r0, [ip], -r0, lsl #6
    1c98:	2e020000 	cdpcs	0, 0, cr0, cr2, cr0, {0}
    1c9c:	00000054 	andeq	r0, r0, r4, asr r0
    1ca0:	b6070202 	strlt	r0, [r7], -r2, lsl #4
    1ca4:	04000000 	streq	r0, [r0], #-0
    1ca8:	6e690504 	cdpvs	5, 6, cr0, cr9, cr4, {0}
    1cac:	02020074 	andeq	r0, r2, #116	; 0x74
    1cb0:	00022d05 	andeq	r2, r2, r5, lsl #26
    1cb4:	0afe0300 	beq	fff828bc <vinform3+0x4d572eb0>
    1cb8:	31020000 	mrscc	r0, (UNDEF: 2)
    1cbc:	00000074 	andeq	r0, r0, r4, ror r0
    1cc0:	a3080102 	movwge	r0, #33026	; 0x8102
    1cc4:	02000000 	andeq	r0, r0, #0
    1cc8:	00a50601 	adceq	r0, r5, r1, lsl #12
    1ccc:	53030000 	movwpl	r0, #12288	; 0x3000
    1cd0:	02000006 	andeq	r0, r0, #6
    1cd4:	0000495a 	andeq	r4, r0, sl, asr r9
    1cd8:	04fd0300 	ldrbteq	r0, [sp], #768	; 0x300
    1cdc:	61020000 	mrsvs	r0, (UNDEF: 2)
    1ce0:	00000082 	andeq	r0, r0, r2, lsl #1
    1ce4:	000b5f05 	andeq	r5, fp, r5, lsl #30
    1ce8:	03094000 	movweq	r4, #36864	; 0x9000
    1cec:	00098509 	andeq	r8, r9, r9, lsl #10
    1cf0:	0ba40600 	bleq	fe9034f8 <vinform3+0x4bef3aec>
    1cf4:	0b030000 	bleq	c1cfc <SVC_stack_size+0xb1cfc>
    1cf8:	00000037 	andeq	r0, r0, r7, lsr r0
    1cfc:	06002302 	streq	r2, [r0], -r2, lsl #6
    1d00:	00000b79 	andeq	r0, r0, r9, ror fp
    1d04:	00370c03 	eorseq	r0, r7, r3, lsl #24
    1d08:	23020000 	movwcs	r0, #8192	; 0x2000
    1d0c:	06fb0604 	ldrbteq	r0, [fp], r4, lsl #12
    1d10:	0d030000 	stceq	0, cr0, [r3, #-0]
    1d14:	00000037 	andeq	r0, r0, r7, lsr r0
    1d18:	06082302 	streq	r2, [r8], -r2, lsl #6
    1d1c:	00000961 	andeq	r0, r0, r1, ror #18
    1d20:	00370e03 	eorseq	r0, r7, r3, lsl #28
    1d24:	23020000 	movwcs	r0, #8192	; 0x2000
    1d28:	0702060c 	streq	r0, [r2, -ip, lsl #12]
    1d2c:	10030000 	andne	r0, r3, r0
    1d30:	00000037 	andeq	r0, r0, r7, lsr r0
    1d34:	06102302 	ldreq	r2, [r0], -r2, lsl #6
    1d38:	00000bab 	andeq	r0, r0, fp, lsr #23
    1d3c:	09851103 	stmibeq	r5, {r0, r1, r8, ip}
    1d40:	23020000 	movwcs	r0, #8192	; 0x2000
    1d44:	0a950614 	beq	fe54359c <vinform3+0x4bb33b90>
    1d48:	13030000 	movwne	r0, #12288	; 0x3000
    1d4c:	00000037 	andeq	r0, r0, r7, lsr r0
    1d50:	06202302 	strteq	r2, [r0], -r2, lsl #6
    1d54:	00000a80 	andeq	r0, r0, r0, lsl #21
    1d58:	00371403 	eorseq	r1, r7, r3, lsl #8
    1d5c:	23020000 	movwcs	r0, #8192	; 0x2000
    1d60:	05eb0624 	strbeq	r0, [fp, #1572]!	; 0x624
    1d64:	15030000 	strne	r0, [r3, #-0]
    1d68:	00000037 	andeq	r0, r0, r7, lsr r0
    1d6c:	06282302 	strteq	r2, [r8], -r2, lsl #6
    1d70:	00000592 	muleq	r0, r2, r5
    1d74:	00371603 	eorseq	r1, r7, r3, lsl #12
    1d78:	23020000 	movwcs	r0, #8192	; 0x2000
    1d7c:	0aee062c 	beq	ffb83634 <vinform3+0x4d173c28>
    1d80:	18030000 	stmdane	r3, {}	; <UNPREDICTABLE>
    1d84:	00000037 	andeq	r0, r0, r7, lsr r0
    1d88:	06302302 	ldrteq	r2, [r0], -r2, lsl #6
    1d8c:	00000bb0 			; <UNDEFINED> instruction: 0x00000bb0
    1d90:	09851903 	stmibeq	r5, {r0, r1, r8, fp, ip}
    1d94:	23020000 	movwcs	r0, #8192	; 0x2000
    1d98:	09b30634 	ldmibeq	r3!, {r2, r4, r5, r9, sl}
    1d9c:	1b030000 	blne	c1da4 <SVC_stack_size+0xb1da4>
    1da0:	00000037 	andeq	r0, r0, r7, lsr r0
    1da4:	06402302 	strbeq	r2, [r0], -r2, lsl #6
    1da8:	00000993 	muleq	r0, r3, r9
    1dac:	00371c03 	eorseq	r1, r7, r3, lsl #24
    1db0:	23020000 	movwcs	r0, #8192	; 0x2000
    1db4:	04e60644 	strbteq	r0, [r6], #1604	; 0x644
    1db8:	1d030000 	stcne	0, cr0, [r3, #-0]
    1dbc:	00000037 	andeq	r0, r0, r7, lsr r0
    1dc0:	06482302 	strbeq	r2, [r8], -r2, lsl #6
    1dc4:	000009c5 	andeq	r0, r0, r5, asr #19
    1dc8:	00371e03 	eorseq	r1, r7, r3, lsl #28
    1dcc:	23020000 	movwcs	r0, #8192	; 0x2000
    1dd0:	0758064c 	ldrbeq	r0, [r8, -ip, asr #12]
    1dd4:	20030000 	andcs	r0, r3, r0
    1dd8:	00000037 	andeq	r0, r0, r7, lsr r0
    1ddc:	06502302 	ldrbeq	r2, [r0], -r2, lsl #6
    1de0:	00000bb5 			; <UNDEFINED> instruction: 0x00000bb5
    1de4:	09852103 	stmibeq	r5, {r0, r1, r8, sp}
    1de8:	23020000 	movwcs	r0, #8192	; 0x2000
    1dec:	08fd0654 	ldmeq	sp!, {r2, r4, r6, r9, sl}^
    1df0:	23030000 	movwcs	r0, #12288	; 0x3000
    1df4:	00000037 	andeq	r0, r0, r7, lsr r0
    1df8:	06602302 	strbteq	r2, [r0], -r2, lsl #6
    1dfc:	000008e0 	andeq	r0, r0, r0, ror #17
    1e00:	00372403 	eorseq	r2, r7, r3, lsl #8
    1e04:	23020000 	movwcs	r0, #8192	; 0x2000
    1e08:	04070664 	streq	r0, [r7], #-1636	; 0x664
    1e0c:	25030000 	strcs	r0, [r3, #-0]
    1e10:	00000037 	andeq	r0, r0, r7, lsr r0
    1e14:	06682302 	strbteq	r2, [r8], -r2, lsl #6
    1e18:	000005c5 	andeq	r0, r0, r5, asr #11
    1e1c:	00372603 	eorseq	r2, r7, r3, lsl #12
    1e20:	23020000 	movwcs	r0, #8192	; 0x2000
    1e24:	0b28066c 	bleq	a037dc <SVC_stack_size+0x9f37dc>
    1e28:	28030000 	stmdacs	r3, {}	; <UNPREDICTABLE>
    1e2c:	00000037 	andeq	r0, r0, r7, lsr r0
    1e30:	06702302 	ldrbteq	r2, [r0], -r2, lsl #6
    1e34:	00000bba 			; <UNDEFINED> instruction: 0x00000bba
    1e38:	09852903 	stmibeq	r5, {r0, r1, r8, fp, sp}
    1e3c:	23020000 	movwcs	r0, #8192	; 0x2000
    1e40:	080b0674 	stmdaeq	fp, {r2, r4, r5, r6, r9, sl}
    1e44:	2b030000 	blcs	c1e4c <SVC_stack_size+0xb1e4c>
    1e48:	00000037 	andeq	r0, r0, r7, lsr r0
    1e4c:	01802303 	orreq	r2, r0, r3, lsl #6
    1e50:	0007f606 	andeq	pc, r7, r6, lsl #12
    1e54:	372c0300 	strcc	r0, [ip, -r0, lsl #6]!
    1e58:	03000000 	movweq	r0, #0
    1e5c:	06018423 	streq	r8, [r1], -r3, lsr #8
    1e60:	00000b52 	andeq	r0, r0, r2, asr fp
    1e64:	00372d03 	eorseq	r2, r7, r3, lsl #26
    1e68:	23030000 	movwcs	r0, #12288	; 0x3000
    1e6c:	d9060188 	stmdble	r6, {r3, r7, r8}
    1e70:	03000009 	movweq	r0, #9
    1e74:	0000372e 	andeq	r3, r0, lr, lsr #14
    1e78:	8c230300 	stchi	3, cr0, [r3], #-0
    1e7c:	07830601 	streq	r0, [r3, r1, lsl #12]
    1e80:	30030000 	andcc	r0, r3, r0
    1e84:	00000037 	andeq	r0, r0, r7, lsr r0
    1e88:	01902303 	orrseq	r2, r0, r3, lsl #6
    1e8c:	000bbf06 	andeq	fp, fp, r6, lsl #30
    1e90:	85310300 	ldrhi	r0, [r1, #-768]!	; 0x300
    1e94:	03000009 	movweq	r0, #9
    1e98:	06019423 	streq	r9, [r1], -r3, lsr #8
    1e9c:	00000751 	andeq	r0, r0, r1, asr r7
    1ea0:	00373303 	eorseq	r3, r7, r3, lsl #6
    1ea4:	23030000 	movwcs	r0, #12288	; 0x3000
    1ea8:	2d0601a0 	stfcss	f0, [r6, #-640]	; 0xfffffd80
    1eac:	03000007 	movweq	r0, #7
    1eb0:	00003734 	andeq	r3, r0, r4, lsr r7
    1eb4:	a4230300 	strtge	r0, [r3], #-768	; 0x300
    1eb8:	0a670601 	beq	19c36c4 <R1_VE+0x9c36c4>
    1ebc:	35030000 	strcc	r0, [r3, #-0]
    1ec0:	00000037 	andeq	r0, r0, r7, lsr r0
    1ec4:	01a82303 			; <UNDEFINED> instruction: 0x01a82303
    1ec8:	00060006 	andeq	r0, r6, r6
    1ecc:	37360300 	ldrcc	r0, [r6, -r0, lsl #6]!
    1ed0:	03000000 	movweq	r0, #0
    1ed4:	0601ac23 	streq	sl, [r1], -r3, lsr #24
    1ed8:	00000b93 	muleq	r0, r3, fp
    1edc:	00373803 	eorseq	r3, r7, r3, lsl #16
    1ee0:	23030000 	movwcs	r0, #12288	; 0x3000
    1ee4:	c40601b0 	strgt	r0, [r6], #-432	; 0x1b0
    1ee8:	0300000b 	movweq	r0, #11
    1eec:	00098539 	andeq	r8, r9, r9, lsr r5
    1ef0:	b4230300 	strtlt	r0, [r3], #-768	; 0x300
    1ef4:	06110601 	ldreq	r0, [r1], -r1, lsl #12
    1ef8:	3b030000 	blcc	c1f00 <SVC_stack_size+0xb1f00>
    1efc:	00000037 	andeq	r0, r0, r7, lsr r0
    1f00:	01c02303 	biceq	r2, r0, r3, lsl #6
    1f04:	0005f906 	andeq	pc, r5, r6, lsl #18
    1f08:	373c0300 	ldrcc	r0, [ip, -r0, lsl #6]!
    1f0c:	03000000 	movweq	r0, #0
    1f10:	0601c423 	streq	ip, [r1], -r3, lsr #8
    1f14:	00000979 	andeq	r0, r0, r9, ror r9
    1f18:	00373d03 	eorseq	r3, r7, r3, lsl #26
    1f1c:	23030000 	movwcs	r0, #12288	; 0x3000
    1f20:	340601c8 	strcc	r0, [r6], #-456	; 0x1c8
    1f24:	0300000a 	movweq	r0, #10
    1f28:	0000373e 	andeq	r3, r0, lr, lsr r7
    1f2c:	cc230300 	stcgt	3, cr0, [r3], #-0
    1f30:	09cf0601 	stmibeq	pc, {r0, r9, sl}^	; <UNPREDICTABLE>
    1f34:	40030000 	andmi	r0, r3, r0
    1f38:	00000037 	andeq	r0, r0, r7, lsr r0
    1f3c:	01d02303 	bicseq	r2, r0, r3, lsl #6
    1f40:	000bc906 	andeq	ip, fp, r6, lsl #18
    1f44:	85410300 	strbhi	r0, [r1, #-768]	; 0x300
    1f48:	03000009 	movweq	r0, #9
    1f4c:	0601d423 	streq	sp, [r1], -r3, lsr #8
    1f50:	00000a5f 	andeq	r0, r0, pc, asr sl
    1f54:	00374303 	eorseq	r4, r7, r3, lsl #6
    1f58:	23030000 	movwcs	r0, #12288	; 0x3000
    1f5c:	1e0601e0 	adfnedz	f0, f6, f0
    1f60:	03000007 	movweq	r0, #7
    1f64:	00003744 	andeq	r3, r0, r4, asr #14
    1f68:	e4230300 	strt	r0, [r3], #-768	; 0x300
    1f6c:	05200601 	streq	r0, [r0, #-1537]!	; 0x601
    1f70:	45030000 	strmi	r0, [r3, #-0]
    1f74:	00000037 	andeq	r0, r0, r7, lsr r0
    1f78:	01e82303 	mvneq	r2, r3, lsl #6
    1f7c:	0008c706 	andeq	ip, r8, r6, lsl #14
    1f80:	37460300 	strbcc	r0, [r6, -r0, lsl #6]
    1f84:	03000000 	movweq	r0, #0
    1f88:	0601ec23 	streq	lr, [r1], -r3, lsr #24
    1f8c:	00000636 	andeq	r0, r0, r6, lsr r6
    1f90:	00374803 	eorseq	r4, r7, r3, lsl #16
    1f94:	23030000 	movwcs	r0, #12288	; 0x3000
    1f98:	180601f0 	stmdane	r6, {r4, r5, r6, r7, r8}
    1f9c:	03000006 	movweq	r0, #6
    1fa0:	00003749 	andeq	r3, r0, r9, asr #14
    1fa4:	f4230300 	vld2.8	{d0-d3}, [r3], r0
    1fa8:	0bce0601 	bleq	ff3837b4 <vinform3+0x4c973da8>
    1fac:	4a030000 	bmi	c1fb4 <SVC_stack_size+0xb1fb4>
    1fb0:	0000099c 	muleq	r0, ip, r9
    1fb4:	01f82303 	mvnseq	r2, r3, lsl #6
    1fb8:	00044606 	andeq	r4, r4, r6, lsl #12
    1fbc:	374c0300 	strbcc	r0, [ip, -r0, lsl #6]
    1fc0:	03000000 	movweq	r0, #0
    1fc4:	06028023 	streq	r8, [r2], -r3, lsr #32
    1fc8:	0000042a 	andeq	r0, r0, sl, lsr #8
    1fcc:	00374d03 	eorseq	r4, r7, r3, lsl #26
    1fd0:	23030000 	movwcs	r0, #12288	; 0x3000
    1fd4:	ef060284 	svc	0x00060284
    1fd8:	03000007 	movweq	r0, #7
    1fdc:	0000374e 	andeq	r3, r0, lr, asr #14
    1fe0:	88230300 	stmdahi	r3!, {r8, r9}
    1fe4:	04b40602 	ldrteq	r0, [r4], #1538	; 0x602
    1fe8:	4f030000 	svcmi	0x00030000
    1fec:	00000037 	andeq	r0, r0, r7, lsr r0
    1ff0:	028c2303 	addeq	r2, ip, #201326592	; 0xc000000
    1ff4:	000a2a06 	andeq	r2, sl, r6, lsl #20
    1ff8:	37510300 	ldrbcc	r0, [r1, -r0, lsl #6]
    1ffc:	03000000 	movweq	r0, #0
    2000:	06029023 	streq	r9, [r2], -r3, lsr #32
    2004:	00000bd3 	ldrdeq	r0, [r0], -r3
    2008:	09855203 	stmibeq	r5, {r0, r1, r9, ip, lr}
    200c:	23030000 	movwcs	r0, #12288	; 0x3000
    2010:	a4060294 	strge	r0, [r6], #-660	; 0x294
    2014:	03000004 	movweq	r0, #4
    2018:	00003754 	andeq	r3, r0, r4, asr r7
    201c:	a0230300 	eorge	r0, r3, r0, lsl #6
    2020:	0b9d0602 	bleq	fe743830 <vinform3+0x4bd33e24>
    2024:	55030000 	strpl	r0, [r3, #-0]
    2028:	00000037 	andeq	r0, r0, r7, lsr r0
    202c:	02a42303 	adceq	r2, r4, #201326592	; 0xc000000
    2030:	00072606 	andeq	r2, r7, r6, lsl #12
    2034:	37560300 	ldrbcc	r0, [r6, -r0, lsl #6]
    2038:	03000000 	movweq	r0, #0
    203c:	0602a823 	streq	sl, [r2], -r3, lsr #16
    2040:	000005e1 	andeq	r0, r0, r1, ror #11
    2044:	00375703 	eorseq	r5, r7, r3, lsl #14
    2048:	23030000 	movwcs	r0, #12288	; 0x3000
    204c:	2c0602ac 	sfmcs	f0, 4, [r6], {172}	; 0xac
    2050:	03000006 	movweq	r0, #6
    2054:	00003759 	andeq	r3, r0, r9, asr r7
    2058:	b0230300 	eorlt	r0, r3, r0, lsl #6
    205c:	0a470602 	beq	11c386c <R1_VE+0x1c386c>
    2060:	5a030000 	bpl	c2068 <SVC_stack_size+0xb2068>
    2064:	00000985 	andeq	r0, r0, r5, lsl #19
    2068:	02b42303 	adcseq	r2, r4, #201326592	; 0xc000000
    206c:	00076b06 	andeq	r6, r7, r6, lsl #22
    2070:	375e0300 	ldrbcc	r0, [lr, -r0, lsl #6]
    2074:	03000000 	movweq	r0, #0
    2078:	0602c023 	streq	ip, [r2], -r3, lsr #32
    207c:	0000074a 	andeq	r0, r0, sl, asr #14
    2080:	00375f03 	eorseq	r5, r7, r3, lsl #30
    2084:	23030000 	movwcs	r0, #12288	; 0x3000
    2088:	870602c4 	strhi	r0, [r6, -r4, asr #5]
    208c:	0300000a 	movweq	r0, #10
    2090:	00003760 	andeq	r3, r0, r0, ror #14
    2094:	c8230300 	stmdagt	r3!, {r8, r9}
    2098:	057c0602 	ldrbeq	r0, [ip, #-1538]!	; 0x602
    209c:	61030000 	mrsvs	r0, (UNDEF: 3)
    20a0:	00000037 	andeq	r0, r0, r7, lsr r0
    20a4:	02cc2303 	sbceq	r2, ip, #201326592	; 0xc000000
    20a8:	000ae406 	andeq	lr, sl, r6, lsl #8
    20ac:	37630300 	strbcc	r0, [r3, -r0, lsl #6]!
    20b0:	03000000 	movweq	r0, #0
    20b4:	0602d023 	streq	sp, [r2], -r3, lsr #32
    20b8:	00000a4d 	andeq	r0, r0, sp, asr #20
    20bc:	09856403 	stmibeq	r5, {r0, r1, sl, sp, lr}
    20c0:	23030000 	movwcs	r0, #12288	; 0x3000
    20c4:	eb0602d4 	bl	182c1c <SVC_stack_size+0x172c1c>
    20c8:	03000009 	movweq	r0, #9
    20cc:	00003766 	andeq	r3, r0, r6, ror #14
    20d0:	e0230300 	eor	r0, r3, r0, lsl #6
    20d4:	060a0602 	streq	r0, [sl], -r2, lsl #12
    20d8:	67030000 	strvs	r0, [r3, -r0]
    20dc:	00000037 	andeq	r0, r0, r7, lsr r0
    20e0:	02e42303 	rsceq	r2, r4, #201326592	; 0xc000000
    20e4:	00099a06 	andeq	r9, r9, r6, lsl #20
    20e8:	37680300 	strbcc	r0, [r8, -r0, lsl #6]!
    20ec:	03000000 	movweq	r0, #0
    20f0:	0602e823 	streq	lr, [r2], -r3, lsr #16
    20f4:	00000980 	andeq	r0, r0, r0, lsl #19
    20f8:	00376903 	eorseq	r6, r7, r3, lsl #18
    20fc:	23030000 	movwcs	r0, #12288	; 0x3000
    2100:	400602ec 	andmi	r0, r6, ip, ror #5
    2104:	03000007 	movweq	r0, #7
    2108:	0000376b 	andeq	r3, r0, fp, ror #14
    210c:	f0230300 			; <UNDEFINED> instruction: 0xf0230300
    2110:	0a530602 	beq	14c3920 <R1_VE+0x4c3920>
    2114:	6c030000 	stcvs	0, cr0, [r3], {-0}
    2118:	00000985 	andeq	r0, r0, r5, lsl #19
    211c:	02f42303 	rscseq	r2, r4, #201326592	; 0xc000000
    2120:	00053806 	andeq	r3, r5, r6, lsl #16
    2124:	376e0300 	strbcc	r0, [lr, -r0, lsl #6]!
    2128:	03000000 	movweq	r0, #0
    212c:	06038023 	streq	r8, [r3], -r3, lsr #32
    2130:	00000527 	andeq	r0, r0, r7, lsr #10
    2134:	00376f03 	eorseq	r6, r7, r3, lsl #30
    2138:	23030000 	movwcs	r0, #12288	; 0x3000
    213c:	e7060384 	str	r0, [r6, -r4, lsl #7]
    2140:	03000008 	movweq	r0, #8
    2144:	00003770 	andeq	r3, r0, r0, ror r7
    2148:	88230300 	stmdahi	r3!, {r8, r9}
    214c:	05bb0603 	ldreq	r0, [fp, #1539]!	; 0x603
    2150:	71030000 	mrsvc	r0, (UNDEF: 3)
    2154:	00000037 	andeq	r0, r0, r7, lsr r0
    2158:	038c2303 	orreq	r2, ip, #201326592	; 0xc000000
    215c:	000b1e06 	andeq	r1, fp, r6, lsl #28
    2160:	37730300 	ldrbcc	r0, [r3, -r0, lsl #6]!
    2164:	03000000 	movweq	r0, #0
    2168:	06039023 	streq	r9, [r3], -r3, lsr #32
    216c:	00000a59 	andeq	r0, r0, r9, asr sl
    2170:	09857403 	stmibeq	r5, {r0, r1, sl, ip, sp, lr}
    2174:	23030000 	movwcs	r0, #12288	; 0x3000
    2178:	ae060394 	mcrge	3, 0, r0, cr6, cr4, {4}
    217c:	03000005 	movweq	r0, #5
    2180:	00003776 	andeq	r3, r0, r6, ror r7
    2184:	a0230300 	eorge	r0, r3, r0, lsl #6
    2188:	09360603 	ldmdbeq	r6!, {r0, r1, r9, sl}
    218c:	77030000 	strvc	r0, [r3, -r0]
    2190:	00000985 	andeq	r0, r0, r5, lsl #19
    2194:	03a42303 			; <UNDEFINED> instruction: 0x03a42303
    2198:	00073406 	andeq	r3, r7, r6, lsl #8
    219c:	37790300 	ldrbcc	r0, [r9, -r0, lsl #6]!
    21a0:	03000000 	movweq	r0, #0
    21a4:	0603b023 	streq	fp, [r3], -r3, lsr #32
    21a8:	00000482 	andeq	r0, r0, r2, lsl #9
    21ac:	00377a03 	eorseq	r7, r7, r3, lsl #20
    21b0:	23030000 	movwcs	r0, #12288	; 0x3000
    21b4:	3c0603b4 	stccc	3, cr0, [r6], {180}	; 0xb4
    21b8:	03000009 	movweq	r0, #9
    21bc:	00099c7b 	andeq	r9, r9, fp, ror ip
    21c0:	b8230300 	stmdalt	r3!, {r8, r9}
    21c4:	0b120603 	bleq	4839d8 <SVC_stack_size+0x4739d8>
    21c8:	7d030000 	stcvc	0, cr0, [r3, #-0]
    21cc:	00000037 	andeq	r0, r0, r7, lsr r0
    21d0:	03c02303 	biceq	r2, r0, #201326592	; 0xc000000
    21d4:	00078d06 	andeq	r8, r7, r6, lsl #26
    21d8:	377e0300 	ldrbcc	r0, [lr, -r0, lsl #6]!
    21dc:	03000000 	movweq	r0, #0
    21e0:	0603c423 	streq	ip, [r3], -r3, lsr #8
    21e4:	00000849 	andeq	r0, r0, r9, asr #16
    21e8:	00377f03 	eorseq	r7, r7, r3, lsl #30
    21ec:	23030000 	movwcs	r0, #12288	; 0x3000
    21f0:	6e0603c8 	cdpvs	3, 0, cr0, cr6, cr8, {6}
    21f4:	0300000a 	movweq	r0, #10
    21f8:	00003780 	andeq	r3, r0, r0, lsl #15
    21fc:	cc230300 	stcgt	3, cr0, [r3], #-0
    2200:	07990603 	ldreq	r0, [r9, r3, lsl #12]
    2204:	82030000 	andhi	r0, r3, #0
    2208:	00000037 	andeq	r0, r0, r7, lsr r0
    220c:	03d02303 	bicseq	r2, r0, #201326592	; 0xc000000
    2210:	00064806 	andeq	r4, r6, r6, lsl #16
    2214:	37830300 	strcc	r0, [r3, r0, lsl #6]
    2218:	03000000 	movweq	r0, #0
    221c:	0603d423 	streq	sp, [r3], -r3, lsr #8
    2220:	00000a74 	andeq	r0, r0, r4, ror sl
    2224:	099c8403 	ldmibeq	ip, {r0, r1, sl, pc}
    2228:	23030000 	movwcs	r0, #12288	; 0x3000
    222c:	7a0603d8 	bvc	183194 <SVC_stack_size+0x173194>
    2230:	0300000a 	movweq	r0, #10
    2234:	0009ac86 	andeq	sl, r9, r6, lsl #25
    2238:	e0230300 	eor	r0, r3, r0, lsl #6
    223c:	06220603 	strteq	r0, [r2], -r3, lsl #12
    2240:	88030000 	stmdahi	r3, {}	; <UNPREDICTABLE>
    2244:	00000037 	andeq	r0, r0, r7, lsr r0
    2248:	04802303 	streq	r2, [r0], #771	; 0x303
    224c:	0006a606 	andeq	sl, r6, r6, lsl #12
    2250:	37890300 	strcc	r0, [r9, r0, lsl #6]
    2254:	03000000 	movweq	r0, #0
    2258:	06048423 	streq	r8, [r4], -r3, lsr #8
    225c:	0000094f 	andeq	r0, r0, pc, asr #18
    2260:	00378a03 	eorseq	r8, r7, r3, lsl #20
    2264:	23030000 	movwcs	r0, #12288	; 0x3000
    2268:	72060488 	andvc	r0, r6, #136, 8	; 0x88000000
    226c:	03000007 	movweq	r0, #7
    2270:	0000378b 	andeq	r3, r0, fp, lsl #15
    2274:	8c230300 	stchi	3, cr0, [r3], #-0
    2278:	07620604 	strbeq	r0, [r2, -r4, lsl #12]!
    227c:	8d030000 	stchi	0, cr0, [r3, #-0]
    2280:	00000037 	andeq	r0, r0, r7, lsr r0
    2284:	04902303 	ldreq	r2, [r0], #771	; 0x303
    2288:	00094206 	andeq	r4, r9, r6, lsl #4
    228c:	858e0300 	strhi	r0, [lr, #768]	; 0x300
    2290:	03000009 	movweq	r0, #9
    2294:	06049423 	streq	r9, [r4], -r3, lsr #8
    2298:	00000439 	andeq	r0, r0, r9, lsr r4
    229c:	00379003 	eorseq	r9, r7, r3
    22a0:	23030000 	movwcs	r0, #12288	; 0x3000
    22a4:	e20604a0 	and	r0, r6, #160, 8	; 0xa0000000
    22a8:	03000007 	movweq	r0, #7
    22ac:	00003791 	muleq	r0, r1, r7
    22b0:	a4230300 	strtge	r0, [r3], #-768	; 0x300
    22b4:	03ce0604 	biceq	r0, lr, #4, 12	; 0x400000
    22b8:	92030000 	andls	r0, r3, #0
    22bc:	00000037 	andeq	r0, r0, r7, lsr r0
    22c0:	04a82303 	strteq	r2, [r8], #771	; 0x303
    22c4:	00091206 	andeq	r1, r9, r6, lsl #4
    22c8:	37930300 	ldrcc	r0, [r3, r0, lsl #6]
    22cc:	03000000 	movweq	r0, #0
    22d0:	0604ac23 	streq	sl, [r4], -r3, lsr #24
    22d4:	00000b6d 	andeq	r0, r0, sp, ror #22
    22d8:	00379503 	eorseq	r9, r7, r3, lsl #10
    22dc:	23030000 	movwcs	r0, #12288	; 0x3000
    22e0:	870604b0 			; <UNDEFINED> instruction: 0x870604b0
    22e4:	0300000b 	movweq	r0, #11
    22e8:	00098596 	muleq	r9, r6, r5
    22ec:	b4230300 	strtlt	r0, [r3], #-768	; 0x300
    22f0:	05d60604 	ldrbeq	r0, [r6, #1540]	; 0x604
    22f4:	98030000 	stmdals	r3, {}	; <UNPREDICTABLE>
    22f8:	00000037 	andeq	r0, r0, r7, lsr r0
    22fc:	04c02303 	strbeq	r2, [r0], #771	; 0x303
    2300:	00088806 	andeq	r8, r8, r6, lsl #16
    2304:	37990300 	ldrcc	r0, [r9, r0, lsl #6]
    2308:	03000000 	movweq	r0, #0
    230c:	0604c423 	streq	ip, [r4], -r3, lsr #8
    2310:	000007d7 	ldrdeq	r0, [r0], -r7
    2314:	00379a03 	eorseq	r9, r7, r3, lsl #20
    2318:	23030000 	movwcs	r0, #12288	; 0x3000
    231c:	d30604c8 	movwle	r0, #25800	; 0x64c8
    2320:	0300000a 	movweq	r0, #10
    2324:	0000379b 	muleq	r0, fp, r7
    2328:	cc230300 	stcgt	3, cr0, [r3], #-0
    232c:	09240604 	stmdbeq	r4!, {r2, r9, sl}
    2330:	9d030000 	stcls	0, cr0, [r3, #-0]
    2334:	00000037 	andeq	r0, r0, r7, lsr r0
    2338:	04d02303 	ldrbeq	r2, [r0], #771	; 0x303
    233c:	000b8d06 	andeq	r8, fp, r6, lsl #26
    2340:	859e0300 	ldrhi	r0, [lr, #768]	; 0x300
    2344:	03000009 	movweq	r0, #9
    2348:	0604d423 	streq	sp, [r4], -r3, lsr #8
    234c:	000009a1 	andeq	r0, r0, r1, lsr #19
    2350:	0037a003 	eorseq	sl, r7, r3
    2354:	23030000 	movwcs	r0, #12288	; 0x3000
    2358:	a90604e0 	stmdbge	r6, {r5, r6, r7, sl}
    235c:	0300000a 	movweq	r0, #10
    2360:	000037a1 	andeq	r3, r0, r1, lsr #15
    2364:	e4230300 	strt	r0, [r3], #-768	; 0x300
    2368:	06b00604 	ldrteq	r0, [r0], r4, lsl #12
    236c:	a2030000 	andge	r0, r3, #0
    2370:	00000037 	andeq	r0, r0, r7, lsr r0
    2374:	04e82303 	strbteq	r2, [r8], #771	; 0x303
    2378:	0004db06 	andeq	sp, r4, r6, lsl #22
    237c:	37a30300 	strcc	r0, [r3, r0, lsl #6]!
    2380:	03000000 	movweq	r0, #0
    2384:	0604ec23 	streq	lr, [r4], -r3, lsr #24
    2388:	00000812 	andeq	r0, r0, r2, lsl r8
    238c:	0037a503 	eorseq	sl, r7, r3, lsl #10
    2390:	23030000 	movwcs	r0, #12288	; 0x3000
    2394:	380604f0 	stmdacc	r6, {r4, r5, r6, r7, sl}
    2398:	0300000b 	movweq	r0, #11
    239c:	000985a6 	andeq	r8, r9, r6, lsr #11
    23a0:	f4230300 	vld2.8	{d0-d3}, [r3], r0
    23a4:	0a3e0604 	beq	f83bbc <fin+0x4120bc>
    23a8:	a8030000 	stmdage	r3, {}	; <UNPREDICTABLE>
    23ac:	00000037 	andeq	r0, r0, r7, lsr r0
    23b0:	05802303 	streq	r2, [r0, #771]	; 0x303
    23b4:	000b3e06 	andeq	r3, fp, r6, lsl #28
    23b8:	37a90300 	strcc	r0, [r9, r0, lsl #6]!
    23bc:	03000000 	movweq	r0, #0
    23c0:	06058423 	streq	r8, [r5], -r3, lsr #8
    23c4:	0000048e 	andeq	r0, r0, lr, lsl #9
    23c8:	0037aa03 	eorseq	sl, r7, r3, lsl #20
    23cc:	23030000 	movwcs	r0, #12288	; 0x3000
    23d0:	46060588 	strmi	r0, [r6], -r8, lsl #11
    23d4:	0300000b 	movweq	r0, #11
    23d8:	000037ab 	andeq	r3, r0, fp, lsr #15
    23dc:	8c230300 	stchi	3, cr0, [r3], #-0
    23e0:	0af80605 	beq	ffe03bfc <vinform3+0x4d3f41f0>
    23e4:	ad030000 	stcge	0, cr0, [r3, #-0]
    23e8:	000009bc 			; <UNDEFINED> instruction: 0x000009bc
    23ec:	05902303 	ldreq	r2, [r0, #771]	; 0x303
    23f0:	00095906 	andeq	r5, r9, r6, lsl #18
    23f4:	37af0300 	strcc	r0, [pc, r0, lsl #6]!
    23f8:	03000000 	movweq	r0, #0
    23fc:	06108023 	ldreq	r8, [r0], -r3, lsr #32
    2400:	0000092e 	andeq	r0, r0, lr, lsr #18
    2404:	0037b003 	eorseq	fp, r7, r3
    2408:	23030000 	movwcs	r0, #12288	; 0x3000
    240c:	8e061084 	cdphi	0, 0, cr1, cr6, cr4, {4}
    2410:	0300000a 	movweq	r0, #10
    2414:	000037b1 			; <UNDEFINED> instruction: 0x000037b1
    2418:	88230300 	stmdahi	r3!, {r8, r9}
    241c:	05f20610 	ldrbeq	r0, [r2, #1552]!	; 0x610
    2420:	b2030000 	andlt	r0, r3, #0
    2424:	00000037 	andeq	r0, r0, r7, lsr r0
    2428:	108c2303 	addne	r2, ip, r3, lsl #6
    242c:	00068506 	andeq	r8, r6, r6, lsl #10
    2430:	37b40300 	ldrcc	r0, [r4, r0, lsl #6]!
    2434:	03000000 	movweq	r0, #0
    2438:	06109023 	ldreq	r9, [r0], -r3, lsr #32
    243c:	0000068d 	andeq	r0, r0, sp, lsl #13
    2440:	0037b503 	eorseq	fp, r7, r3, lsl #10
    2444:	23030000 	movwcs	r0, #12288	; 0x3000
    2448:	ac061094 	stcge	0, cr1, [r6], {148}	; 0x94
    244c:	03000009 	movweq	r0, #9
    2450:	000037b6 			; <UNDEFINED> instruction: 0x000037b6
    2454:	98230300 	stmdals	r3!, {r8, r9}
    2458:	09040610 	stmdbeq	r4, {r4, r9, sl}
    245c:	b7030000 	strlt	r0, [r3, -r0]
    2460:	00000037 	andeq	r0, r0, r7, lsr r0
    2464:	109c2303 	addsne	r2, ip, r3, lsl #6
    2468:	00090b06 	andeq	r0, r9, r6, lsl #22
    246c:	37b90300 	ldrcc	r0, [r9, r0, lsl #6]!
    2470:	03000000 	movweq	r0, #0
    2474:	0610a023 	ldreq	sl, [r0], -r3, lsr #32
    2478:	000008f6 	strdeq	r0, [r0], -r6
    247c:	0037ba03 	eorseq	fp, r7, r3, lsl #20
    2480:	23030000 	movwcs	r0, #12288	; 0x3000
    2484:	230610a4 	movwcs	r1, #24740	; 0x60a4
    2488:	03000004 	movweq	r0, #4
    248c:	000037bb 			; <UNDEFINED> instruction: 0x000037bb
    2490:	a8230300 	stmdage	r3!, {r8, r9}
    2494:	0b060610 	bleq	183cdc <SVC_stack_size+0x173cdc>
    2498:	bc030000 	stclt	0, cr0, [r3], {-0}
    249c:	00000037 	andeq	r0, r0, r7, lsr r0
    24a0:	10ac2303 	adcne	r2, ip, r3, lsl #6
    24a4:	00086306 	andeq	r6, r8, r6, lsl #6
    24a8:	37be0300 	ldrcc	r0, [lr, r0, lsl #6]!
    24ac:	03000000 	movweq	r0, #0
    24b0:	0610b023 	ldreq	fp, [r0], -r3, lsr #32
    24b4:	00000804 	andeq	r0, r0, r4, lsl #16
    24b8:	0037bf03 	eorseq	fp, r7, r3, lsl #30
    24bc:	23030000 	movwcs	r0, #12288	; 0x3000
    24c0:	800610b4 	strhhi	r1, [r6], -r4
    24c4:	0300000b 	movweq	r0, #11
    24c8:	000037c0 	andeq	r3, r0, r0, asr #15
    24cc:	b8230300 	stmdalt	r3!, {r8, r9}
    24d0:	0b0c0610 	bleq	303d18 <SVC_stack_size+0x2f3d18>
    24d4:	c1030000 	mrsgt	r0, (UNDEF: 3)
    24d8:	00000037 	andeq	r0, r0, r7, lsr r0
    24dc:	10bc2303 	adcsne	r2, ip, r3, lsl #6
    24e0:	000b4c06 	andeq	r4, fp, r6, lsl #24
    24e4:	cdc30300 	stclgt	3, cr0, [r3]
    24e8:	03000009 	movweq	r0, #9
    24ec:	0610c023 	ldreq	ip, [r0], -r3, lsr #32
    24f0:	000003fe 	strdeq	r0, [r0], -lr
    24f4:	0037c503 	eorseq	ip, r7, r3, lsl #10
    24f8:	23030000 	movwcs	r0, #12288	; 0x3000
    24fc:	de061180 	adfled	f1, f6, f0
    2500:	0300000a 	movweq	r0, #10
    2504:	000985c6 	andeq	r8, r9, r6, asr #11
    2508:	84230300 	strthi	r0, [r3], #-768	; 0x300
    250c:	0b320611 	bleq	c83d58 <fin+0x112258>
    2510:	c8030000 	stmdagt	r3, {}	; <UNPREDICTABLE>
    2514:	000009dd 	ldrdeq	r0, [r0], -sp
    2518:	11902303 	orrsne	r2, r0, r3, lsl #6
    251c:	0007b506 	andeq	fp, r7, r6, lsl #10
    2520:	37ca0300 	strbcc	r0, [sl, r0, lsl #6]
    2524:	03000000 	movweq	r0, #0
    2528:	06128023 	ldreq	r8, [r2], -r3, lsr #32
    252c:	000007bf 			; <UNDEFINED> instruction: 0x000007bf
    2530:	0037cb03 	eorseq	ip, r7, r3, lsl #22
    2534:	23030000 	movwcs	r0, #12288	; 0x3000
    2538:	4d061284 	sfmmi	f1, 4, [r6, #-528]	; 0xfffffdf0
    253c:	03000004 	movweq	r0, #4
    2540:	00099ccc 	andeq	r9, r9, ip, asr #25
    2544:	88230300 	stmdahi	r3!, {r8, r9}
    2548:	09fc0612 	ldmibeq	ip!, {r1, r4, r9, sl}^
    254c:	ce030000 	cdpgt	0, 0, cr0, cr3, cr0, {0}
    2550:	00000037 	andeq	r0, r0, r7, lsr r0
    2554:	12902303 	addsne	r2, r0, #201326592	; 0xc000000
    2558:	000a9c06 	andeq	r9, sl, r6, lsl #24
    255c:	37cf0300 	strbcc	r0, [pc, r0, lsl #6]
    2560:	03000000 	movweq	r0, #0
    2564:	06129423 	ldreq	r9, [r2], -r3, lsr #8
    2568:	00000a13 	andeq	r0, r0, r3, lsl sl
    256c:	0037d003 	eorseq	sp, r7, r3
    2570:	23030000 	movwcs	r0, #12288	; 0x3000
    2574:	b4061298 	strlt	r1, [r6], #-664	; 0x298
    2578:	0300000a 	movweq	r0, #10
    257c:	000037d1 	ldrdeq	r3, [r0], -r1
    2580:	9c230300 	stcls	3, cr0, [r3], #-0
    2584:	08ae0612 	stmiaeq	lr!, {r1, r4, r9, sl}
    2588:	d3030000 	movwle	r0, #12288	; 0x3000
    258c:	00000037 	andeq	r0, r0, r7, lsr r0
    2590:	12a02303 	adcne	r2, r0, #201326592	; 0xc000000
    2594:	000ac106 	andeq	ip, sl, r6, lsl #2
    2598:	37d40300 	ldrbcc	r0, [r4, r0, lsl #6]
    259c:	03000000 	movweq	r0, #0
    25a0:	0612a423 	ldreq	sl, [r2], -r3, lsr #8
    25a4:	00000453 	andeq	r0, r0, r3, asr r4
    25a8:	099cd503 	ldmibeq	ip, {r0, r1, r8, sl, ip, lr, pc}
    25ac:	23030000 	movwcs	r0, #12288	; 0x3000
    25b0:	c80612a8 	stmdagt	r6, {r3, r5, r7, r9, ip}
    25b4:	03000003 	movweq	r0, #3
    25b8:	000037d7 	ldrdeq	r3, [r0], -r7
    25bc:	b0230300 	eorlt	r0, r3, r0, lsl #6
    25c0:	04590612 	ldrbeq	r0, [r9], #-1554	; 0x612
    25c4:	d8030000 	stmdale	r3, {}	; <UNPREDICTABLE>
    25c8:	00000985 	andeq	r0, r0, r5, lsl #19
    25cc:	12b42303 	adcsne	r2, r4, #201326592	; 0xc000000
    25d0:	00370700 	eorseq	r0, r7, r0, lsl #14
    25d4:	09950000 	ldmibeq	r5, {}	; <UNPREDICTABLE>
    25d8:	95080000 	strls	r0, [r8, #-0]
    25dc:	02000009 	andeq	r0, r0, #9
    25e0:	07040200 	streq	r0, [r4, -r0, lsl #4]
    25e4:	000001bb 			; <UNDEFINED> instruction: 0x000001bb
    25e8:	00003707 	andeq	r3, r0, r7, lsl #14
    25ec:	0009ac00 	andeq	sl, r9, r0, lsl #24
    25f0:	09950800 	ldmibeq	r5, {fp}
    25f4:	00010000 	andeq	r0, r1, r0
    25f8:	00003707 	andeq	r3, r0, r7, lsl #14
    25fc:	0009bc00 	andeq	fp, r9, r0, lsl #24
    2600:	09950800 	ldmibeq	r5, {fp}
    2604:	00070000 	andeq	r0, r7, r0
    2608:	00003707 	andeq	r3, r0, r7, lsl #14
    260c:	0009cd00 	andeq	ip, r9, r0, lsl #26
    2610:	09950900 	ldmibeq	r5, {r8, fp}
    2614:	015b0000 	cmpeq	fp, r0
    2618:	00370700 	eorseq	r0, r7, r0, lsl #14
    261c:	09dd0000 	ldmibeq	sp, {}^	; <UNPREDICTABLE>
    2620:	95080000 	strls	r0, [r8, #-0]
    2624:	0f000009 	svceq	0x00000009
    2628:	00370700 	eorseq	r0, r7, r0, lsl #14
    262c:	09ed0000 	stmibeq	sp!, {}^	; <UNPREDICTABLE>
    2630:	95080000 	strls	r0, [r8, #-0]
    2634:	1b000009 	blne	2660 <IRQ_stack_size+0x1660>
    2638:	18010a00 	stmdane	r1, {r9, fp}
    263c:	0100000c 	tsteq	r0, ip
    2640:	00690110 	rsbeq	r0, r9, r0, lsl r1
    2644:	0a080000 	beq	20264c <SVC_stack_size+0x1f264c>
    2648:	0a9c0c00 	beq	fe705650 <vinform3+0x4bcf5c44>
    264c:	06da0c00 	ldrbeq	r0, [sl], r0, lsl #24
    2650:	6e010000 	cdpvs	0, 0, cr0, cr1, cr0, {0}
    2654:	0b00000a 	bleq	2684 <IRQ_stack_size+0x1684>
    2658:	00667562 	rsbeq	r7, r6, r2, ror #10
    265c:	0a6e1001 	beq	1b86668 <R1_VE+0xb86668>
    2660:	07060000 	streq	r0, [r6, -r0]
    2664:	690c0000 	stmdbvs	ip, {}	; <UNPREDICTABLE>
    2668:	37120100 	ldrcc	r0, [r2, -r0, lsl #2]
    266c:	24000000 	strcs	r0, [r0], #-0
    2670:	0c000007 	stceq	0, cr0, [r0], {7}
    2674:	01007070 	tsteq	r0, r0, ror r0
    2678:	00006913 	andeq	r6, r0, r3, lsl r9
    267c:	00074f00 	andeq	r4, r7, r0, lsl #30
    2680:	0a2c0d00 	beq	b05a88 <SVC_stack_size+0xaf5a88>
    2684:	0c4f0c00 	mcrreq	12, 0, r0, pc, cr0
    2688:	0a490000 	beq	1242690 <R1_VE+0x242690>
    268c:	010e0000 	mrseq	r0, (UNDEF: 14)
    2690:	67910250 			; <UNDEFINED> instruction: 0x67910250
    2694:	0a700f00 	beq	1c0629c <R1_VE+0xc0629c>
    2698:	0c670c00 	stcleq	12, cr0, [r7], #-0
    269c:	740f0000 	strvc	r0, [pc], #-0	; 26a4 <IRQ_stack_size+0x16a4>
    26a0:	670c000a 	strvs	r0, [ip, -sl]
    26a4:	0f00000c 	svceq	0x0000000c
    26a8:	0c000a7c 	stceq	10, cr0, [r0], {124}	; 0x7c
    26ac:	00000c67 	andeq	r0, r0, r7, ror #24
    26b0:	000a900f 	andeq	r9, sl, pc
    26b4:	000c670c 	andeq	r6, ip, ip, lsl #14
    26b8:	04100000 	ldreq	r0, [r0], #-0
    26bc:	00000069 	andeq	r0, r0, r9, rrx
    26c0:	0c05010a 	stfeqs	f0, [r5], {10}
    26c4:	34010000 	strcc	r0, [r1], #-0
    26c8:	00005b01 	andeq	r5, r0, r1, lsl #22
    26cc:	000a9c00 	andeq	r9, sl, r0, lsl #24
    26d0:	000b700c 	andeq	r7, fp, ip
    26d4:	0007840c 	andeq	r8, r7, ip, lsl #8
    26d8:	0c220100 	stfeqs	f0, [r2], #-0
    26dc:	690c0000 	stmdbvs	ip, {}	; <UNPREDICTABLE>
    26e0:	37360100 	ldrcc	r0, [r6, -r0, lsl #2]!
    26e4:	a4000000 	strge	r0, [r0], #-0
    26e8:	11000007 	tstne	r0, r7
    26ec:	00000c0a 	andeq	r0, r0, sl, lsl #24
    26f0:	00373601 	eorseq	r3, r7, r1, lsl #12
    26f4:	12000000 	andne	r0, r0, #0
    26f8:	000002f8 	strdeq	r0, [r0], -r8
    26fc:	00373601 	eorseq	r3, r7, r1, lsl #12
    2700:	65130000 	ldrvs	r0, [r3, #-0]
    2704:	0100746f 	tsteq	r0, pc, ror #8
    2708:	00008d37 	andeq	r8, r0, r7, lsr sp
    270c:	00140000 	andseq	r0, r4, r0
    2710:	0100000c 	tsteq	r0, ip
    2714:	000a6e38 	andeq	r6, sl, r8, lsr lr
    2718:	00400000 	subeq	r0, r0, r0
    271c:	0c2d1450 	cfstrseq	mvf1, [sp], #-320	; 0xfffffec0
    2720:	39010000 	stmdbcc	r1, {}	; <UNPREDICTABLE>
    2724:	00000a6e 	andeq	r0, r0, lr, ror #20
    2728:	57e00000 	strbpl	r0, [r0, r0]!
    272c:	000bf714 	andeq	pc, fp, r4, lsl r7	; <UNPREDICTABLE>
    2730:	6e3a0100 	rsfvse	f0, f2, f0
    2734:	0000000a 	andeq	r0, r0, sl
    2738:	13500000 	cmpne	r0, #0
    273c:	01007070 	tsteq	r0, r0, ror r0
    2740:	0000693b 	andeq	r6, r0, fp, lsr r9
    2744:	63130000 	tstvs	r3, #0
    2748:	0100646d 	tsteq	r0, sp, ror #8
    274c:	0000693b 	andeq	r6, r0, fp, lsr r9
    2750:	62151500 	andsvs	r1, r5, #0, 10
    2754:	01006675 	tsteq	r0, r5, ror r6
    2758:	000c223c 	andeq	r2, ip, ip, lsr r2
    275c:	0c231600 	stceq	6, cr1, [r3], #-0
    2760:	3d010000 	stccc	0, cr0, [r1, #-0]
    2764:	00000069 	andeq	r0, r0, r9, rrx
    2768:	000007c4 	andeq	r0, r0, r4, asr #15
    276c:	000aa40f 	andeq	sl, sl, pc, lsl #8
    2770:	000c750c 	andeq	r7, ip, ip, lsl #10
    2774:	0aac0d00 	beq	feb05b7c <vinform3+0x4c0f6170>
    2778:	0c830c00 	stceq	12, cr0, [r3], {0}
    277c:	0b400000 	bleq	1002784 <R1_VE+0x2784>
    2780:	010e0000 	mrseq	r0, (UNDEF: 14)
    2784:	90030550 	andls	r0, r3, r0, asr r5
    2788:	000c000b 	andeq	r0, ip, fp
    278c:	000acc0d 	andeq	ip, sl, sp, lsl #24
    2790:	000c830c 	andeq	r8, ip, ip, lsl #6
    2794:	000b5700 	andeq	r5, fp, r0, lsl #14
    2798:	50010e00 	andpl	r0, r1, r0, lsl #28
    279c:	0ba00305 	bleq	fe8033b8 <vinform3+0x4bdf39ac>
    27a0:	0d000c00 	stceq	12, cr0, [r0, #-0]
    27a4:	0c000ad4 	stceq	10, cr0, [r0], {212}	; 0xd4
    27a8:	00000c97 	muleq	r0, r7, ip
    27ac:	00000b6a 	andeq	r0, r0, sl, ror #22
    27b0:	0150010e 	cmpeq	r0, lr, lsl #2
    27b4:	dc0d0030 	stcle	0, cr0, [sp], {48}	; 0x30
    27b8:	830c000a 	movwhi	r0, #49162	; 0xc00a
    27bc:	8100000c 	tsthi	r0, ip
    27c0:	0e00000b 	cdpeq	0, 0, cr0, cr0, cr11, {0}
    27c4:	03055001 	movweq	r5, #20481	; 0x5001
    27c8:	0c000bb0 	stceq	11, cr0, [r0], {176}	; 0xb0
    27cc:	0aec0d00 	beq	ffb05bd4 <vinform3+0x4d0f61c8>
    27d0:	0cab0c00 	stceq	12, cr0, [fp]
    27d4:	0ba60000 	bleq	fe9827dc <vinform3+0x4bf72dd0>
    27d8:	010e0000 	mrseq	r0, (UNDEF: 14)
    27dc:	000a0352 	andeq	r0, sl, r2, asr r3
    27e0:	51010e08 	tstpl	r1, r8, lsl #28
    27e4:	00000c05 	andeq	r0, r0, r5, lsl #24
    27e8:	010e57e0 	smlatteq	lr, r0, r7, r5
    27ec:	000a0350 	andeq	r0, sl, r0, asr r3
    27f0:	f40d0020 	vst4.8	{d0-d3}, [sp :128], r0
    27f4:	830c000a 	movwhi	r0, #49162	; 0xc00a
    27f8:	bd00000c 	stclt	0, cr0, [r0, #-48]	; 0xffffffd0
    27fc:	0e00000b 	cdpeq	0, 0, cr0, cr0, cr11, {0}
    2800:	03055001 	movweq	r5, #20481	; 0x5001
    2804:	0c000bc0 	stceq	11, cr0, [r0], {192}	; 0xc0
    2808:	0b040d00 	bleq	105c10 <SVC_stack_size+0xf5c10>
    280c:	0ccd0c00 	stcleq	12, cr0, [sp], {0}
    2810:	0be00000 	bleq	ff802818 <vinform3+0x4cdf2e0c>
    2814:	010e0000 	mrseq	r0, (UNDEF: 14)
    2818:	000a0352 	andeq	r0, sl, r2, asr r3
    281c:	51010e08 	tstpl	r1, r8, lsl #28
    2820:	244a4403 	strbcs	r4, [sl], #-1027	; 0x403
    2824:	0350010e 	cmpeq	r0, #-2147483645	; 0x80000003
    2828:	0020000a 	eoreq	r0, r0, sl
    282c:	000b0c0d 	andeq	r0, fp, sp, lsl #24
    2830:	000c830c 	andeq	r8, ip, ip, lsl #6
    2834:	000bf700 	andeq	pc, fp, r0, lsl #14
    2838:	50010e00 	andpl	r0, r1, r0, lsl #28
    283c:	0bd00305 	bleq	ff403458 <vinform3+0x4c9f3a4c>
    2840:	0d000c00 	stceq	12, cr0, [r0, #-0]
    2844:	0c000b34 	stceq	11, cr0, [r0], {52}	; 0x34
    2848:	00000c83 	andeq	r0, r0, r3, lsl #25
    284c:	00000c0e 	andeq	r0, r0, lr, lsl #24
    2850:	0550010e 	ldrbeq	r0, [r0, #-270]	; 0x10e
    2854:	000be803 	andeq	lr, fp, r3, lsl #16
    2858:	4017000c 	andsmi	r0, r7, ip
    285c:	830c000b 	movwhi	r0, #49163	; 0xc00b
    2860:	0e00000c 	cdpeq	0, 0, cr0, cr0, cr12, {0}
    2864:	03055001 	movweq	r5, #20481	; 0x5001
    2868:	0c000c00 	stceq	12, cr0, [r0], {-0}
    286c:	69070000 	stmdbvs	r7, {}	; <UNPREDICTABLE>
    2870:	32000000 	andcc	r0, r0, #0
    2874:	0800000c 	stmdaeq	r0, {r2, r3}
    2878:	00000995 	muleq	r0, r5, r9
    287c:	2f18007f 	svccs	0x0018007f
    2880:	01000008 	tsteq	r0, r8
    2884:	000c440f 	andeq	r4, ip, pc, lsl #8
    2888:	03050100 	movweq	r0, #20736	; 0x5100
    288c:	0c000c24 	stceq	12, cr0, [r0], {36}	; 0x24
    2890:	0c4a0410 	cfstrdeq	mvd0, [sl], {16}
    2894:	98190000 	ldmdals	r9, {}	; <UNPREDICTABLE>
    2898:	1a000000 	bne	28a0 <IRQ_stack_size+0x18a0>
    289c:	00049a01 	andeq	r9, r4, r1, lsl #20
    28a0:	019c0400 	orrseq	r0, ip, r0, lsl #8
    28a4:	0000008d 	andeq	r0, r0, sp, lsl #1
    28a8:	000c6701 	andeq	r6, ip, r1, lsl #14
    28ac:	0a6e1b00 	beq	1b894b4 <R1_VE+0xb894b4>
    28b0:	1c000000 	stcne	0, cr0, [r0], {-0}
    28b4:	000be401 	andeq	lr, fp, r1, lsl #8
    28b8:	019b0400 	orrseq	r0, fp, r0, lsl #8
    28bc:	00000069 	andeq	r0, r0, r9, rrx
    28c0:	ce011c01 	cdpgt	12, 0, cr1, cr1, cr1, {0}
    28c4:	04000008 	streq	r0, [r0], #-8
    28c8:	008d019a 	umulleq	r0, sp, sl, r1
    28cc:	1d010000 	stcne	0, cr0, [r1, #-0]
    28d0:	00035b01 	andeq	r5, r3, r1, lsl #22
    28d4:	019e0400 	orrseq	r0, lr, r0, lsl #8
    28d8:	000c9701 	andeq	r9, ip, r1, lsl #14
    28dc:	0a6e1b00 	beq	1b894e4 <R1_VE+0xb894e4>
    28e0:	1d000000 	stcne	0, cr0, [r0, #-0]
    28e4:	00030401 	andeq	r0, r3, r1, lsl #8
    28e8:	01100500 	tsteq	r0, r0, lsl #10
    28ec:	000cab01 	andeq	sl, ip, r1, lsl #22
    28f0:	00421b00 	subeq	r1, r2, r0, lsl #22
    28f4:	1a000000 	bne	28fc <IRQ_stack_size+0x18fc>
    28f8:	00039601 	andeq	r9, r3, r1, lsl #12
    28fc:	010f0500 	tsteq	pc, r0, lsl #10
    2900:	0000005b 	andeq	r0, r0, fp, asr r0
    2904:	000ccd01 	andeq	ip, ip, r1, lsl #26
    2908:	00421b00 	subeq	r1, r2, r0, lsl #22
    290c:	421b0000 	andsmi	r0, fp, #0
    2910:	1b000000 	blne	2918 <IRQ_stack_size+0x1918>
    2914:	00000042 	andeq	r0, r0, r2, asr #32
    2918:	0f011e00 	svceq	0x00011e00
    291c:	05000003 	streq	r0, [r0, #-3]
    2920:	005b010e 	subseq	r0, fp, lr, lsl #2
    2924:	1b010000 	blne	4292c <SVC_stack_size+0x3292c>
    2928:	00000042 	andeq	r0, r0, r2, asr #32
    292c:	0000421b 	andeq	r4, r0, fp, lsl r2
    2930:	00421b00 	subeq	r1, r2, r0, lsl #22
    2934:	00000000 	andeq	r0, r0, r0

Disassembly of section .debug_abbrev:

00000000 <.debug_abbrev>:
   0:	10001101 	andne	r1, r0, r1, lsl #2
   4:	12011106 	andne	r1, r1, #-2147483647	; 0x80000001
   8:	1b080301 	blne	200c14 <SVC_stack_size+0x1f0c14>
   c:	13082508 	movwne	r2, #34056	; 0x8508
  10:	00000005 	andeq	r0, r0, r5
  14:	25011101 	strcs	r1, [r1, #-257]	; 0x101
  18:	030b130e 	movweq	r1, #45838	; 0xb30e
  1c:	110e1b0e 	tstne	lr, lr, lsl #22
  20:	10011201 	andne	r1, r1, r1, lsl #4
  24:	02000006 	andeq	r0, r0, #6
  28:	0b0b0024 	bleq	2c00c0 <SVC_stack_size+0x2b00c0>
  2c:	0e030b3e 	vmoveq.16	d3[0], r0
  30:	16030000 	strne	r0, [r3], -r0
  34:	3a0e0300 	bcc	380c3c <SVC_stack_size+0x370c3c>
  38:	490b3b0b 	stmdbmi	fp, {r0, r1, r3, r8, r9, fp, ip, sp}
  3c:	04000013 	streq	r0, [r0], #-19
  40:	0b0b0024 	bleq	2c00d8 <SVC_stack_size+0x2b00d8>
  44:	08030b3e 	stmdaeq	r3, {r1, r2, r3, r4, r5, r8, r9, fp}
  48:	13050000 	movwne	r0, #20480	; 0x5000
  4c:	0b0e0301 	bleq	380c58 <SVC_stack_size+0x370c58>
  50:	3b0b3a05 	blcc	2ce86c <SVC_stack_size+0x2be86c>
  54:	0013010b 	andseq	r0, r3, fp, lsl #2
  58:	000d0600 	andeq	r0, sp, r0, lsl #12
  5c:	0b3a0e03 	bleq	e83870 <fin+0x311d70>
  60:	13490b3b 	movtne	r0, #39739	; 0x9b3b
  64:	00000a38 	andeq	r0, r0, r8, lsr sl
  68:	49010107 	stmdbmi	r1, {r0, r1, r2, r8}
  6c:	00130113 	andseq	r0, r3, r3, lsl r1
  70:	00210800 	eoreq	r0, r1, r0, lsl #16
  74:	0b2f1349 	bleq	bc4da0 <fin+0x532a0>
  78:	13090000 	movwne	r0, #36864	; 0x9000
  7c:	0b0e0301 	bleq	380c88 <SVC_stack_size+0x370c88>
  80:	3b0b3a0b 	blcc	2ce8b4 <SVC_stack_size+0x2be8b4>
  84:	0013010b 	andseq	r0, r3, fp, lsl #2
  88:	012e0a00 	teqeq	lr, r0, lsl #20
  8c:	0e030c3f 	mcreq	12, 0, r0, cr3, cr15, {1}
  90:	0b3b0b3a 	bleq	ec2d80 <fin+0x351280>
  94:	01110c27 	tsteq	r1, r7, lsr #24
  98:	0a400112 	beq	10004e8 <R1_VE+0x4e8>
  9c:	010c4297 			; <UNDEFINED> instruction: 0x010c4297
  a0:	0b000013 	bleq	f4 <NOINT+0x34>
  a4:	0e030034 	mcreq	0, 0, r0, cr3, cr4, {1}
  a8:	0b3b0b3a 	bleq	ec2d98 <fin+0x351298>
  ac:	06021349 	streq	r1, [r2], -r9, asr #6
  b0:	2e0c0000 	cdpcs	0, 0, cr0, cr12, cr0, {0}
  b4:	030c3f01 	movweq	r3, #52993	; 0xcf01
  b8:	3b0b3a0e 	blcc	2ce8f8 <SVC_stack_size+0x2be8f8>
  bc:	110c270b 	tstne	ip, fp, lsl #14
  c0:	40011201 	andmi	r1, r1, r1, lsl #4
  c4:	0c429706 	mcrreq	7, 0, r9, r2, cr6
  c8:	00001301 	andeq	r1, r0, r1, lsl #6
  cc:	0300340d 	movweq	r3, #1037	; 0x40d
  d0:	3b0b3a0e 	blcc	2ce910 <SVC_stack_size+0x2be910>
  d4:	1c13490b 	ldcne	9, cr4, [r3], {11}
  d8:	0e00000b 	cdpeq	0, 0, cr0, cr0, cr11, {0}
  dc:	0e030034 	mcreq	0, 0, r0, cr3, cr4, {1}
  e0:	0b3b0b3a 	bleq	ec2dd0 <fin+0x3512d0>
  e4:	061c1349 	ldreq	r1, [ip], -r9, asr #6
  e8:	260f0000 	strcs	r0, [pc], -r0
  ec:	00134900 	andseq	r4, r3, r0, lsl #18
  f0:	000f1000 	andeq	r1, pc, r0
  f4:	13490b0b 	movtne	r0, #39691	; 0x9b0b
  f8:	35110000 	ldrcc	r0, [r1, #-0]
  fc:	00134900 	andseq	r4, r3, r0, lsl #18
 100:	11010000 	mrsne	r0, (UNDEF: 1)
 104:	130e2501 	movwne	r2, #58625	; 0xe501
 108:	1b0e030b 	blne	380d3c <SVC_stack_size+0x370d3c>
 10c:	1201110e 	andne	r1, r1, #-2147483645	; 0x80000003
 110:	00061001 	andeq	r1, r6, r1
 114:	002e0200 	eoreq	r0, lr, r0, lsl #4
 118:	0e030c3f 	mcreq	12, 0, r0, cr3, cr15, {1}
 11c:	0b3b0b3a 	bleq	ec2e0c <fin+0x35130c>
 120:	00000b20 	andeq	r0, r0, r0, lsr #22
 124:	3f012e03 	svccc	0x00012e03
 128:	3a0e030c 	bcc	380d60 <SVC_stack_size+0x370d60>
 12c:	270b3b0b 	strcs	r3, [fp, -fp, lsl #22]
 130:	010b200c 	tsteq	fp, ip
 134:	04000013 	streq	r0, [r0], #-19
 138:	08030005 	stmdaeq	r3, {r0, r2}
 13c:	0b3b0b3a 	bleq	ec2e2c <fin+0x35132c>
 140:	00001349 	andeq	r1, r0, r9, asr #6
 144:	0b002405 	bleq	9160 <IRQ_stack_size+0x8160>
 148:	030b3e0b 	movweq	r3, #48651	; 0xbe0b
 14c:	0600000e 	streq	r0, [r0], -lr
 150:	1331002e 	teqne	r1, #46	; 0x2e
 154:	01120111 	tsteq	r2, r1, lsl r1
 158:	42970a40 	addsmi	r0, r7, #64, 20	; 0x40000
 15c:	0700000c 	streq	r0, [r0, -ip]
 160:	1331012e 	teqne	r1, #-2147483637	; 0x8000000b
 164:	01120111 	tsteq	r2, r1, lsl r1
 168:	42970a40 	addsmi	r0, r7, #64, 20	; 0x40000
 16c:	0013010c 	andseq	r0, r3, ip, lsl #2
 170:	00050800 	andeq	r0, r5, r0, lsl #16
 174:	0a021331 	beq	84e40 <SVC_stack_size+0x74e40>
 178:	2e090000 	cdpcs	0, 0, cr0, cr9, cr0, {0}
 17c:	030c3f01 	movweq	r3, #52993	; 0xcf01
 180:	3b0b3a0e 	blcc	2ce9c0 <SVC_stack_size+0x2be9c0>
 184:	110c270b 	tstne	ip, fp, lsl #14
 188:	40011201 	andmi	r1, r1, r1, lsl #4
 18c:	0c429706 	mcrreq	7, 0, r9, r2, cr6
 190:	00001301 	andeq	r1, r0, r1, lsl #6
 194:	0300050a 	movweq	r0, #1290	; 0x50a
 198:	3b0b3a0e 	blcc	2ce9d8 <SVC_stack_size+0x2be9d8>
 19c:	0213490b 	andseq	r4, r3, #180224	; 0x2c000
 1a0:	0b000006 	bleq	1c0 <apll_mdiv+0xb6>
 1a4:	08030034 	stmdaeq	r3, {r2, r4, r5}
 1a8:	0b3b0b3a 	bleq	ec2e98 <fin+0x351398>
 1ac:	06021349 	streq	r1, [r2], -r9, asr #6
 1b0:	340c0000 	strcc	r0, [ip], #-0
 1b4:	3a0e0300 	bcc	380dbc <SVC_stack_size+0x370dbc>
 1b8:	490b3b0b 	stmdbmi	fp, {r0, r1, r3, r8, r9, fp, ip, sp}
 1bc:	00060213 	andeq	r0, r6, r3, lsl r2
 1c0:	001d0d00 	andseq	r0, sp, r0, lsl #26
 1c4:	01521331 	cmpeq	r2, r1, lsr r3
 1c8:	0b580655 	bleq	1601b24 <R1_VE+0x601b24>
 1cc:	00000b59 	andeq	r0, r0, r9, asr fp
 1d0:	31011d0e 	tstcc	r1, lr, lsl #26
 1d4:	12011113 	andne	r1, r1, #-1073741820	; 0xc0000004
 1d8:	590b5801 	stmdbpl	fp, {r0, fp, ip, lr}
 1dc:	0013010b 	andseq	r0, r3, fp, lsl #2
 1e0:	00050f00 	andeq	r0, r5, r0, lsl #30
 1e4:	0d1c1331 	ldceq	3, cr1, [ip, #-196]	; 0xffffff3c
 1e8:	1d100000 	ldcne	0, cr0, [r0, #-0]
 1ec:	11133100 	tstne	r3, r0, lsl #2
 1f0:	58011201 	stmdapl	r1, {r0, r9, ip}
 1f4:	000b590b 	andeq	r5, fp, fp, lsl #18
 1f8:	012e1100 	teqeq	lr, r0, lsl #2
 1fc:	0e030c3f 	mcreq	12, 0, r0, cr3, cr15, {1}
 200:	0b3b0b3a 	bleq	ec2ef0 <fin+0x3513f0>
 204:	01120111 	tsteq	r2, r1, lsl r1
 208:	42970a40 	addsmi	r0, r7, #64, 20	; 0x40000
 20c:	0013010c 	andseq	r0, r3, ip, lsl #2
 210:	00051200 	andeq	r1, r5, r0, lsl #4
 214:	0b1c1331 	bleq	704ee0 <SVC_stack_size+0x6f4ee0>
 218:	0b130000 	bleq	4c0220 <SVC_stack_size+0x4b0220>
 21c:	01065501 	tsteq	r6, r1, lsl #10
 220:	14000013 	strne	r0, [r0], #-19
 224:	0c3f012e 	ldfeqs	f0, [pc], #-184	; 174 <apll_mdiv+0x6a>
 228:	0b3a0e03 	bleq	e83a3c <fin+0x311f3c>
 22c:	13490b3b 	movtne	r0, #39739	; 0x9b3b
 230:	13010c3c 	movwne	r0, #7228	; 0x1c3c
 234:	18150000 	ldmdane	r5, {}	; <UNPREDICTABLE>
 238:	16000000 	strne	r0, [r0], -r0
 23c:	01018289 	smlabbeq	r1, r9, r2, r8
 240:	42950111 	addsmi	r0, r5, #1073741828	; 0x40000004
 244:	0013310c 	andseq	r3, r3, ip, lsl #2
 248:	828a1700 	addhi	r1, sl, #0, 14
 24c:	0a020001 	beq	80258 <SVC_stack_size+0x70258>
 250:	000a4291 	muleq	sl, r1, r2
 254:	010b1800 	tsteq	fp, r0, lsl #16
 258:	00000655 	andeq	r0, r0, r5, asr r6
 25c:	0b002419 	bleq	92c8 <IRQ_stack_size+0x82c8>
 260:	030b3e0b 	movweq	r3, #48651	; 0xbe0b
 264:	1a000008 	bne	28c <apll_mdiv+0x182>
 268:	0c3f012e 	ldfeqs	f0, [pc], #-184	; 1b8 <apll_mdiv+0xae>
 26c:	0b3a0e03 	bleq	e83a80 <fin+0x311f80>
 270:	01110b3b 	tsteq	r1, fp, lsr fp
 274:	06400112 			; <UNDEFINED> instruction: 0x06400112
 278:	010c4297 			; <UNDEFINED> instruction: 0x010c4297
 27c:	1b000013 	blne	2d0 <apll_mdiv+0x1c6>
 280:	1331011d 	teqne	r1, #1073741831	; 0x40000007
 284:	06550152 			; <UNDEFINED> instruction: 0x06550152
 288:	0b590b58 	bleq	1642ff0 <R1_VE+0x642ff0>
 28c:	2e1c0000 	cdpcs	0, 1, cr0, cr12, cr0, {0}
 290:	030c3f01 	movweq	r3, #52993	; 0xcf01
 294:	3b0b3a0e 	blcc	2cead4 <SVC_stack_size+0x2bead4>
 298:	490c270b 	stmdbmi	ip, {r0, r1, r3, r8, r9, sl, sp}
 29c:	12011113 	andne	r1, r1, #-1073741820	; 0xc0000004
 2a0:	97064001 	strls	r4, [r6, -r1]
 2a4:	13010c42 	movwne	r0, #7234	; 0x1c42
 2a8:	051d0000 	ldreq	r0, [sp, #-0]
 2ac:	3a080300 	bcc	200eb4 <SVC_stack_size+0x1f0eb4>
 2b0:	490b3b0b 	stmdbmi	fp, {r0, r1, r3, r8, r9, fp, ip, sp}
 2b4:	00060213 	andeq	r0, r6, r3, lsl r2
 2b8:	011d1e00 	tsteq	sp, r0, lsl #28
 2bc:	01521331 	cmpeq	r2, r1, lsr r3
 2c0:	0b580655 	bleq	1601c1c <R1_VE+0x601c1c>
 2c4:	13010b59 	movwne	r0, #7001	; 0x1b59
 2c8:	051f0000 	ldreq	r0, [pc, #-0]	; 2d0 <apll_mdiv+0x1c6>
 2cc:	02133100 	andseq	r3, r3, #0, 2
 2d0:	20000006 	andcs	r0, r0, r6
 2d4:	01018289 	smlabbeq	r1, r9, r2, r8
 2d8:	13310111 	teqne	r1, #1073741828	; 0x40000004
 2dc:	0f210000 	svceq	0x00210000
 2e0:	490b0b00 	stmdbmi	fp, {r8, r9, fp}
 2e4:	22000013 	andcs	r0, r0, #19
 2e8:	0c3f012e 	ldfeqs	f0, [pc], #-184	; 238 <apll_mdiv+0x12e>
 2ec:	0b3a0e03 	bleq	e83b00 <fin+0x312000>
 2f0:	0c270b3b 	stceq	11, cr0, [r7], #-236	; 0xffffff14
 2f4:	01120111 	tsteq	r2, r1, lsl r1
 2f8:	42970a40 	addsmi	r0, r7, #64, 20	; 0x40000
 2fc:	0013010c 	andseq	r0, r3, ip, lsl #2
 300:	00052300 	andeq	r2, r5, r0, lsl #6
 304:	0b3a0e03 	bleq	e83b18 <fin+0x312018>
 308:	13490b3b 	movtne	r0, #39739	; 0x9b3b
 30c:	00000a02 	andeq	r0, r0, r2, lsl #20
 310:	01828924 	orreq	r8, r2, r4, lsr #18
 314:	31011100 	mrscc	r1, (UNDEF: 17)
 318:	25000013 	strcs	r0, [r0, #-19]
 31c:	01018289 	smlabbeq	r1, r9, r2, r8
 320:	13310111 	teqne	r1, #1073741828	; 0x40000004
 324:	00001301 	andeq	r1, r0, r1, lsl #6
 328:	03003426 	movweq	r3, #1062	; 0x426
 32c:	3b0b3a0e 	blcc	2ceb6c <SVC_stack_size+0x2beb6c>
 330:	0213490b 	andseq	r4, r3, #180224	; 0x2c000
 334:	2700000a 	strcs	r0, [r0, -sl]
 338:	08030034 	stmdaeq	r3, {r2, r4, r5}
 33c:	0b3b0b3a 	bleq	ec302c <fin+0x35152c>
 340:	0a021349 	beq	8506c <SVC_stack_size+0x7506c>
 344:	2e280000 	cdpcs	0, 2, cr0, cr8, cr0, {0}
 348:	030c3f01 	movweq	r3, #52993	; 0xcf01
 34c:	3b0b3a0e 	blcc	2ceb8c <SVC_stack_size+0x2beb8c>
 350:	3c13490b 	ldccc	9, cr4, [r3], {11}
 354:	0000000c 	andeq	r0, r0, ip
 358:	25011101 	strcs	r1, [r1, #-257]	; 0x101
 35c:	030b130e 	movweq	r1, #45838	; 0xb30e
 360:	110e1b0e 	tstne	lr, lr, lsl #22
 364:	10011201 	andne	r1, r1, r1, lsl #4
 368:	02000006 	andeq	r0, r0, #6
 36c:	0b0b0024 	bleq	2c0404 <SVC_stack_size+0x2b0404>
 370:	0e030b3e 	vmoveq.16	d3[0], r0
 374:	16030000 	strne	r0, [r3], -r0
 378:	3a0e0300 	bcc	380f80 <SVC_stack_size+0x370f80>
 37c:	490b3b0b 	stmdbmi	fp, {r0, r1, r3, r8, r9, fp, ip, sp}
 380:	04000013 	streq	r0, [r0], #-19
 384:	0b0b0024 	bleq	2c041c <SVC_stack_size+0x2b041c>
 388:	08030b3e 	stmdaeq	r3, {r1, r2, r3, r4, r5, r8, r9, fp}
 38c:	13050000 	movwne	r0, #20480	; 0x5000
 390:	0b0e0301 	bleq	380f9c <SVC_stack_size+0x370f9c>
 394:	3b0b3a05 	blcc	2cebb0 <SVC_stack_size+0x2bebb0>
 398:	0013010b 	andseq	r0, r3, fp, lsl #2
 39c:	000d0600 	andeq	r0, sp, r0, lsl #12
 3a0:	0b3a0e03 	bleq	e83bb4 <fin+0x3120b4>
 3a4:	13490b3b 	movtne	r0, #39739	; 0x9b3b
 3a8:	00000a38 	andeq	r0, r0, r8, lsr sl
 3ac:	49010107 	stmdbmi	r1, {r0, r1, r2, r8}
 3b0:	00130113 	andseq	r0, r3, r3, lsl r1
 3b4:	00210800 	eoreq	r0, r1, r0, lsl #16
 3b8:	0b2f1349 	bleq	bc50e4 <fin+0x535e4>
 3bc:	21090000 	mrscs	r0, (UNDEF: 9)
 3c0:	2f134900 	svccs	0x00134900
 3c4:	0a000005 	beq	3e0 <apll_mdiv+0x2d6>
 3c8:	0e030113 	mcreq	1, 0, r0, cr3, cr3, {0}
 3cc:	0b3a0b0b 	bleq	e83000 <fin+0x311500>
 3d0:	13010b3b 	movwne	r0, #6971	; 0x1b3b
 3d4:	2e0b0000 	cdpcs	0, 0, cr0, cr11, cr0, {0}
 3d8:	030c3f01 	movweq	r3, #52993	; 0xcf01
 3dc:	3b0b3a0e 	blcc	2cec1c <SVC_stack_size+0x2bec1c>
 3e0:	200c270b 	andcs	r2, ip, fp, lsl #14
 3e4:	0013010b 	andseq	r0, r3, fp, lsl #2
 3e8:	00050c00 	andeq	r0, r5, r0, lsl #24
 3ec:	0b3a0e03 	bleq	e83c00 <fin+0x312100>
 3f0:	13490b3b 	movtne	r0, #39739	; 0x9b3b
 3f4:	340d0000 	strcc	r0, [sp], #-0
 3f8:	3a0e0300 	bcc	381000 <SVC_stack_size+0x371000>
 3fc:	490b3b0b 	stmdbmi	fp, {r0, r1, r3, r8, r9, fp, ip, sp}
 400:	0e000013 	mcreq	0, 0, r0, cr0, cr3, {0}
 404:	0c3f012e 	ldfeqs	f0, [pc], #-184	; 354 <apll_mdiv+0x24a>
 408:	0b3a0e03 	bleq	e83c1c <fin+0x31211c>
 40c:	0c270b3b 	stceq	11, cr0, [r7], #-236	; 0xffffff14
 410:	01111349 	tsteq	r1, r9, asr #6
 414:	0a400112 	beq	1000864 <R1_VE+0x864>
 418:	010c4297 			; <UNDEFINED> instruction: 0x010c4297
 41c:	0f000013 	svceq	0x00000013
 420:	0e030034 	mcreq	0, 0, r0, cr3, cr4, {1}
 424:	0b3b0b3a 	bleq	ec3114 <fin+0x351614>
 428:	0a021349 	beq	85154 <SVC_stack_size+0x75154>
 42c:	05100000 	ldreq	r0, [r0, #-0]
 430:	3a0e0300 	bcc	381038 <SVC_stack_size+0x371038>
 434:	490b3b0b 	stmdbmi	fp, {r0, r1, r3, r8, r9, fp, ip, sp}
 438:	00060213 	andeq	r0, r6, r3, lsl r2
 43c:	00341100 	eorseq	r1, r4, r0, lsl #2
 440:	0b3a0e03 	bleq	e83c54 <fin+0x312154>
 444:	13490b3b 	movtne	r0, #39739	; 0x9b3b
 448:	00000602 	andeq	r0, r0, r2, lsl #12
 44c:	0b000f12 	bleq	409c <IRQ_stack_size+0x309c>
 450:	0013490b 	andseq	r4, r3, fp, lsl #18
 454:	012e1300 	teqeq	lr, r0, lsl #6
 458:	01111331 	tsteq	r1, r1, lsr r3
 45c:	0a400112 	beq	10008ac <R1_VE+0x8ac>
 460:	010c4297 			; <UNDEFINED> instruction: 0x010c4297
 464:	14000013 	strne	r0, [r0], #-19
 468:	13310005 	teqne	r1, #5
 46c:	00000a02 	andeq	r0, r0, r2, lsl #20
 470:	31003415 	tstcc	r0, r5, lsl r4
 474:	00060213 	andeq	r0, r6, r3, lsl r2
 478:	012e1600 	teqeq	lr, r0, lsl #12
 47c:	0e030c3f 	mcreq	12, 0, r0, cr3, cr15, {1}
 480:	0b3b0b3a 	bleq	ec3170 <fin+0x351670>
 484:	01110c27 	tsteq	r1, r7, lsr #24
 488:	0a400112 	beq	10008d8 <R1_VE+0x8d8>
 48c:	010c4297 			; <UNDEFINED> instruction: 0x010c4297
 490:	17000013 	smladne	r0, r3, r0, r0
 494:	08030005 	stmdaeq	r3, {r0, r2}
 498:	0b3b0b3a 	bleq	ec3188 <fin+0x351688>
 49c:	06021349 	streq	r1, [r2], -r9, asr #6
 4a0:	34180000 	ldrcc	r0, [r8], #-0
 4a4:	3a080300 	bcc	2010ac <SVC_stack_size+0x1f10ac>
 4a8:	490b3b0b 	stmdbmi	fp, {r0, r1, r3, r8, r9, fp, ip, sp}
 4ac:	00060213 	andeq	r0, r6, r3, lsl r2
 4b0:	011d1900 	tsteq	sp, r0, lsl #18
 4b4:	01111331 	tsteq	r1, r1, lsr r3
 4b8:	0b580112 	bleq	1600908 <R1_VE+0x600908>
 4bc:	00000b59 	andeq	r0, r0, r9, asr fp
 4c0:	3100051a 	tstcc	r0, sl, lsl r5
 4c4:	1b000013 	blne	518 <apll_mdiv+0x40e>
 4c8:	0111010b 	tsteq	r1, fp, lsl #2
 4cc:	00000112 	andeq	r0, r0, r2, lsl r1
 4d0:	0300341c 	movweq	r3, #1052	; 0x41c
 4d4:	3b0b3a0e 	blcc	2ced14 <SVC_stack_size+0x2bed14>
 4d8:	3f13490b 	svccc	0x0013490b
 4dc:	000a020c 	andeq	r0, sl, ip, lsl #4
 4e0:	00351d00 	eorseq	r1, r5, r0, lsl #26
 4e4:	00001349 	andeq	r1, r0, r9, asr #6
 4e8:	01110100 	tsteq	r1, r0, lsl #2
 4ec:	0b130e25 	bleq	4c3d88 <SVC_stack_size+0x4b3d88>
 4f0:	0e1b0e03 	cdpeq	14, 1, cr0, cr11, cr3, {0}
 4f4:	01110655 	tsteq	r1, r5, asr r6
 4f8:	06100152 			; <UNDEFINED> instruction: 0x06100152
 4fc:	24020000 	strcs	r0, [r2], #-0
 500:	3e0b0b00 	vmlacc.f64	d0, d11, d0
 504:	000e030b 	andeq	r0, lr, fp, lsl #6
 508:	00160300 	andseq	r0, r6, r0, lsl #6
 50c:	0b3a0e03 	bleq	e83d20 <fin+0x312220>
 510:	13490b3b 	movtne	r0, #39739	; 0x9b3b
 514:	24040000 	strcs	r0, [r4], #-0
 518:	3e0b0b00 	vmlacc.f64	d0, d11, d0
 51c:	0008030b 	andeq	r0, r8, fp, lsl #6
 520:	01130500 	tsteq	r3, r0, lsl #10
 524:	050b0e03 	streq	r0, [fp, #-3587]	; 0xe03
 528:	0b3b0b3a 	bleq	ec3218 <fin+0x351718>
 52c:	00001301 	andeq	r1, r0, r1, lsl #6
 530:	03000d06 	movweq	r0, #3334	; 0xd06
 534:	3b0b3a0e 	blcc	2ced74 <SVC_stack_size+0x2bed74>
 538:	3813490b 	ldmdacc	r3, {r0, r1, r3, r8, fp, lr}
 53c:	0700000a 	streq	r0, [r0, -sl]
 540:	13490101 	movtne	r0, #37121	; 0x9101
 544:	00001301 	andeq	r1, r0, r1, lsl #6
 548:	49002108 	stmdbmi	r0, {r3, r8, sp}
 54c:	000b2f13 	andeq	r2, fp, r3, lsl pc
 550:	00210900 	eoreq	r0, r1, r0, lsl #18
 554:	052f1349 	streq	r1, [pc, #-841]!	; 213 <apll_mdiv+0x109>
 558:	2e0a0000 	cdpcs	0, 0, cr0, cr10, cr0, {0}
 55c:	030c3f01 	movweq	r3, #52993	; 0xcf01
 560:	3b0b3a0e 	blcc	2ceda0 <SVC_stack_size+0x2beda0>
 564:	490c270b 	stmdbmi	ip, {r0, r1, r3, r8, r9, sl, sp}
 568:	12011113 	andne	r1, r1, #-1073741820	; 0xc0000004
 56c:	97064001 	strls	r4, [r6, -r1]
 570:	13010c42 	movwne	r0, #7234	; 0x1c42
 574:	050b0000 	streq	r0, [fp, #-0]
 578:	3a080300 	bcc	201180 <SVC_stack_size+0x1f1180>
 57c:	490b3b0b 	stmdbmi	fp, {r0, r1, r3, r8, r9, fp, ip, sp}
 580:	00060213 	andeq	r0, r6, r3, lsl r2
 584:	00340c00 	eorseq	r0, r4, r0, lsl #24
 588:	0b3a0803 	bleq	e8259c <fin+0x310a9c>
 58c:	13490b3b 	movtne	r0, #39739	; 0x9b3b
 590:	00000602 	andeq	r0, r0, r2, lsl #12
 594:	0182890d 	orreq	r8, r2, sp, lsl #18
 598:	31011101 	tstcc	r1, r1, lsl #2
 59c:	00130113 	andseq	r0, r3, r3, lsl r1
 5a0:	828a0e00 	addhi	r0, sl, #0, 28
 5a4:	0a020001 	beq	805b0 <SVC_stack_size+0x705b0>
 5a8:	000a4291 	muleq	sl, r1, r2
 5ac:	82890f00 	addhi	r0, r9, #0, 30
 5b0:	01110001 	tsteq	r1, r1
 5b4:	00001331 	andeq	r1, r0, r1, lsr r3
 5b8:	0b000f10 	bleq	4200 <IRQ_stack_size+0x3200>
 5bc:	0013490b 	andseq	r4, r3, fp, lsl #18
 5c0:	00341100 	eorseq	r1, r4, r0, lsl #2
 5c4:	0b3a0e03 	bleq	e83dd8 <fin+0x3122d8>
 5c8:	13490b3b 	movtne	r0, #39739	; 0x9b3b
 5cc:	00000b1c 	andeq	r0, r0, ip, lsl fp
 5d0:	03003412 	movweq	r3, #1042	; 0x412
 5d4:	3b0b3a0e 	blcc	2cee14 <SVC_stack_size+0x2bee14>
 5d8:	0013490b 	andseq	r4, r3, fp, lsl #18
 5dc:	00341300 	eorseq	r1, r4, r0, lsl #6
 5e0:	0b3a0803 	bleq	e825f4 <fin+0x310af4>
 5e4:	13490b3b 	movtne	r0, #39739	; 0x9b3b
 5e8:	00000b1c 	andeq	r0, r0, ip, lsl fp
 5ec:	03003414 	movweq	r3, #1044	; 0x414
 5f0:	3b0b3a0e 	blcc	2cee30 <SVC_stack_size+0x2bee30>
 5f4:	1c13490b 	ldcne	9, cr4, [r3], {11}
 5f8:	15000006 	strne	r0, [r0, #-6]
 5fc:	08030034 	stmdaeq	r3, {r2, r4, r5}
 600:	0b3b0b3a 	bleq	ec32f0 <fin+0x3517f0>
 604:	00001349 	andeq	r1, r0, r9, asr #6
 608:	03003416 	movweq	r3, #1046	; 0x416
 60c:	3b0b3a0e 	blcc	2cee4c <SVC_stack_size+0x2bee4c>
 610:	0213490b 	andseq	r4, r3, #180224	; 0x2c000
 614:	17000006 	strne	r0, [r0, -r6]
 618:	01018289 	smlabbeq	r1, r9, r2, r8
 61c:	13310111 	teqne	r1, #1073741828	; 0x40000004
 620:	34180000 	ldrcc	r0, [r8], #-0
 624:	3a0e0300 	bcc	38122c <SVC_stack_size+0x37122c>
 628:	490b3b0b 	stmdbmi	fp, {r0, r1, r3, r8, r9, fp, ip, sp}
 62c:	020c3f13 	andeq	r3, ip, #19, 30	; 0x4c
 630:	1900000a 	stmdbne	r0, {r1, r3}
 634:	13490035 	movtne	r0, #36917	; 0x9035
 638:	2e1a0000 	cdpcs	0, 1, cr0, cr10, cr0, {0}
 63c:	030c3f01 	movweq	r3, #52993	; 0xcf01
 640:	3b0b3a0e 	blcc	2cee80 <SVC_stack_size+0x2bee80>
 644:	490c270b 	stmdbmi	ip, {r0, r1, r3, r8, r9, sl, sp}
 648:	010c3c13 	tsteq	ip, r3, lsl ip
 64c:	1b000013 	blne	6a0 <apll_mdiv+0x596>
 650:	13490005 	movtne	r0, #36869	; 0x9005
 654:	2e1c0000 	cdpcs	0, 1, cr0, cr12, cr0, {0}
 658:	030c3f00 	movweq	r3, #52992	; 0xcf00
 65c:	3b0b3a0e 	blcc	2cee9c <SVC_stack_size+0x2bee9c>
 660:	490c270b 	stmdbmi	ip, {r0, r1, r3, r8, r9, sl, sp}
 664:	000c3c13 	andeq	r3, ip, r3, lsl ip
 668:	012e1d00 	teqeq	lr, r0, lsl #26
 66c:	0e030c3f 	mcreq	12, 0, r0, cr3, cr15, {1}
 670:	0b3b0b3a 	bleq	ec3360 <fin+0x351860>
 674:	0c3c0c27 	ldceq	12, cr0, [ip], #-156	; 0xffffff64
 678:	00001301 	andeq	r1, r0, r1, lsl #6
 67c:	3f012e1e 	svccc	0x00012e1e
 680:	3a0e030c 	bcc	3812b8 <SVC_stack_size+0x3712b8>
 684:	270b3b0b 	strcs	r3, [fp, -fp, lsl #22]
 688:	3c13490c 	ldccc	9, cr4, [r3], {12}
 68c:	0000000c 	andeq	r0, r0, ip

Disassembly of section .debug_aranges:

00000000 <.debug_aranges>:
   0:	0000001c 	andeq	r0, r0, ip, lsl r0
   4:	00000002 	andeq	r0, r0, r2
   8:	00040000 	andeq	r0, r4, r0
   c:	00000000 	andeq	r0, r0, r0
  10:	0c000000 	stceq	0, cr0, [r0], {-0}
  14:	000002dc 	ldrdeq	r0, [r0], -ip
	...
  20:	0000001c 	andeq	r0, r0, ip, lsl r0
  24:	00620002 	rsbeq	r0, r2, r2
  28:	00040000 	andeq	r0, r4, r0
  2c:	00000000 	andeq	r0, r0, r0
  30:	0c0002dc 	sfmeq	f0, 4, [r0], {220}	; 0xdc
  34:	00000108 	andeq	r0, r0, r8, lsl #2
	...
  40:	0000001c 	andeq	r0, r0, ip, lsl r0
  44:	04b00002 	ldrteq	r0, [r0], #2
  48:	00040000 	andeq	r0, r4, r0
  4c:	00000000 	andeq	r0, r0, r0
  50:	0c0003e4 	stceq	3, cr0, [r0], {228}	; 0xe4
  54:	000004a8 	andeq	r0, r0, r8, lsr #9
	...
  60:	0000001c 	andeq	r0, r0, ip, lsl r0
  64:	0bcb0002 	bleq	ff2c0074 <vinform3+0x4c8b0668>
  68:	00040000 	andeq	r0, r4, r0
  6c:	00000000 	andeq	r0, r0, r0
  70:	0c00088c 	stceq	8, cr0, [r0], {140}	; 0x8c
  74:	0000017c 	andeq	r0, r0, ip, ror r1
	...
  80:	00000024 	andeq	r0, r0, r4, lsr #32
  84:	1c4c0002 	mcrrne	0, 0, r0, ip, cr2
  88:	00040000 	andeq	r0, r4, r0
  8c:	00000000 	andeq	r0, r0, r0
  90:	0c000a08 	stceq	10, cr0, [r0], {8}
  94:	00000094 	muleq	r0, r4, r0
  98:	0c000a9c 	stceq	10, cr0, [r0], {156}	; 0x9c
  9c:	000000d4 	ldrdeq	r0, [r0], -r4
	...

Disassembly of section .debug_loc:

00000000 <.debug_loc>:
   0:	00000008 	andeq	r0, r0, r8
   4:	00000018 	andeq	r0, r0, r8, lsl r0
   8:	18520001 	ldmdane	r2, {r0}^
   c:	20000000 	andcs	r0, r0, r0
  10:	02000000 	andeq	r0, r0, #0
  14:	00007300 	andeq	r7, r0, r0, lsl #6
  18:	00000000 	andeq	r0, r0, r0
  1c:	20000000 	andcs	r0, r0, r0
  20:	24000000 	strcs	r0, [r0], #-0
  24:	02000000 	andeq	r0, r0, #0
  28:	24007d00 	strcs	r7, [r0], #-3328	; 0xd00
  2c:	08000000 	stmdaeq	r0, {}	; <UNPREDICTABLE>
  30:	02000001 	andeq	r0, r0, #1
  34:	00107d00 	andseq	r7, r0, r0, lsl #26
  38:	00000000 	andeq	r0, r0, r0
  3c:	5c000000 	stcpl	0, cr0, [r0], {-0}
  40:	68000000 	stmdavs	r0, {}	; <UNPREDICTABLE>
  44:	02000000 	andeq	r0, r0, #0
  48:	689f3400 	ldmvs	pc, {sl, ip, sp}	; <UNPREDICTABLE>
  4c:	6c000000 	stcvs	0, cr0, [r0], {-0}
  50:	02000000 	andeq	r0, r0, #0
  54:	6c9f3b00 	vldmiavs	pc, {d3-d2}
  58:	08000000 	stmdaeq	r0, {}	; <UNPREDICTABLE>
  5c:	02000001 	andeq	r0, r0, #1
  60:	009f3400 	addseq	r3, pc, r0, lsl #8
  64:	00000000 	andeq	r0, r0, r0
  68:	40000000 	andmi	r0, r0, r0
  6c:	54000000 	strpl	r0, [r0], #-0
  70:	02000000 	andeq	r0, r0, #0
  74:	54007d00 	strpl	r7, [r0], #-3328	; 0xd00
  78:	88000000 	stmdahi	r0, {}	; <UNPREDICTABLE>
  7c:	02000000 	andeq	r0, r0, #0
  80:	00047d00 	andeq	r7, r4, r0, lsl #26
  84:	00000000 	andeq	r0, r0, r0
  88:	40000000 	andmi	r0, r0, r0
  8c:	68000000 	stmdavs	r0, {}	; <UNPREDICTABLE>
  90:	01000000 	mrseq	r0, (UNDEF: 0)
  94:	00685000 	rsbeq	r5, r8, r0
  98:	00880000 	addeq	r0, r8, r0
  9c:	00040000 	andeq	r0, r4, r0
  a0:	9f5001f3 	svcls	0x005001f3
	...
  ac:	00000048 	andeq	r0, r0, r8, asr #32
  b0:	00000060 	andeq	r0, r0, r0, rrx
  b4:	60510001 	subsvs	r0, r1, r1
  b8:	68000000 	stmdavs	r0, {}	; <UNPREDICTABLE>
  bc:	05000000 	streq	r0, [r0, #-0]
  c0:	3b007000 	blcc	1c0c8 <SVC_stack_size+0xc0c8>
  c4:	00689f25 	rsbeq	r9, r8, r5, lsr #30
  c8:	00880000 	addeq	r0, r8, r0
  cc:	00060000 	andeq	r0, r6, r0
  d0:	3b5001f3 	blcc	14008a4 <R1_VE+0x4008a4>
  d4:	00009f25 	andeq	r9, r0, r5, lsr #30
  d8:	00000000 	andeq	r0, r0, r0
  dc:	00480000 	subeq	r0, r8, r0
  e0:	00680000 	rsbeq	r0, r8, r0
  e4:	00070000 	andeq	r0, r7, r0
  e8:	ff0a0070 			; <UNDEFINED> instruction: 0xff0a0070
  ec:	689f1a07 	ldmvs	pc, {r0, r1, r2, r9, fp, ip}	; <UNPREDICTABLE>
  f0:	88000000 	stmdahi	r0, {}	; <UNPREDICTABLE>
  f4:	08000000 	stmdaeq	r0, {}	; <UNPREDICTABLE>
  f8:	5001f300 	andpl	pc, r1, r0, lsl #6
  fc:	1a07ff0a 	bne	1ffd2c <SVC_stack_size+0x1efd2c>
 100:	0000009f 	muleq	r0, pc, r0	; <UNPREDICTABLE>
 104:	00000000 	andeq	r0, r0, r0
 108:	0000f000 	andeq	pc, r0, r0
 10c:	0000ff00 	andeq	pc, r0, r0, lsl #30
 110:	73000600 	movwvc	r0, #1536	; 0x600
 114:	1aff0800 	bne	fffc211c <vinform3+0x4d5b2710>
 118:	0001009f 	muleq	r1, pc, r0	; <UNPREDICTABLE>
 11c:	00010700 	andeq	r0, r1, r0, lsl #14
 120:	73000600 	movwvc	r0, #1536	; 0x600
 124:	1aff0800 	bne	fffc212c <vinform3+0x4d5b2720>
 128:	0000009f 	muleq	r0, pc, r0	; <UNPREDICTABLE>
 12c:	00000000 	andeq	r0, r0, r0
 130:	00011400 	andeq	r1, r1, r0, lsl #8
 134:	00011c00 	andeq	r1, r1, r0, lsl #24
 138:	7d000200 	sfmvc	f0, 4, [r0, #-0]
 13c:	00011c00 	andeq	r1, r1, r0, lsl #24
 140:	0001f800 	andeq	pc, r1, r0, lsl #16
 144:	7d000200 	sfmvc	f0, 4, [r0, #-0]
 148:	00000004 	andeq	r0, r0, r4
 14c:	00000000 	andeq	r0, r0, r0
 150:	0001f800 	andeq	pc, r1, r0, lsl #16
 154:	0001fc00 	andeq	pc, r1, r0, lsl #24
 158:	7d000200 	sfmvc	f0, 4, [r0, #-0]
 15c:	0001fc00 	andeq	pc, r1, r0, lsl #24
 160:	00029400 	andeq	r9, r2, r0, lsl #8
 164:	7d000200 	sfmvc	f0, 4, [r0, #-0]
 168:	00000020 	andeq	r0, r0, r0, lsr #32
 16c:	00000000 	andeq	r0, r0, r0
 170:	0001f800 	andeq	pc, r1, r0, lsl #16
 174:	00022800 	andeq	r2, r2, r0, lsl #16
 178:	50000100 	andpl	r0, r0, r0, lsl #2
 17c:	00000228 	andeq	r0, r0, r8, lsr #4
 180:	00000294 	muleq	r0, r4, r2
 184:	01f30004 	mvnseq	r0, r4
 188:	00009f50 	andeq	r9, r0, r0, asr pc
 18c:	00000000 	andeq	r0, r0, r0
 190:	01f80000 	mvnseq	r0, r0
 194:	02280000 	eoreq	r0, r8, #0
 198:	00010000 	andeq	r0, r1, r0
 19c:	00022851 	andeq	r2, r2, r1, asr r8
 1a0:	00029400 	andeq	r9, r2, r0, lsl #8
 1a4:	f3000400 	vshl.u8	d0, d0, d0
 1a8:	009f5101 	addseq	r5, pc, r1, lsl #2
 1ac:	00000000 	andeq	r0, r0, r0
 1b0:	f8000000 			; <UNDEFINED> instruction: 0xf8000000
 1b4:	28000001 	stmdacs	r0, {r0}
 1b8:	01000002 	tsteq	r0, r2
 1bc:	02285200 	eoreq	r5, r8, #0, 4
 1c0:	02940000 	addseq	r0, r4, #0
 1c4:	00040000 	andeq	r0, r4, r0
 1c8:	9f5201f3 	svcls	0x005201f3
	...
 1d4:	000001f8 	strdeq	r0, [r0], -r8
 1d8:	00000228 	andeq	r0, r0, r8, lsr #4
 1dc:	6c520001 	mrrcvs	0, 0, r0, r2, cr1
 1e0:	70000002 	andvc	r0, r0, r2
 1e4:	06000002 	streq	r0, [r0], -r2
 1e8:	71007800 	tstvc	r0, r0, lsl #16
 1ec:	709f1c00 	addsvc	r1, pc, r0, lsl #24
 1f0:	74000002 	strvc	r0, [r0], #-2
 1f4:	01000002 	tsteq	r0, r2
 1f8:	00005800 	andeq	r5, r0, r0, lsl #16
 1fc:	00000000 	andeq	r0, r0, r0
 200:	02080000 	andeq	r0, r8, #0
 204:	02280000 	eoreq	r0, r8, #0
 208:	00010000 	andeq	r0, r1, r0
 20c:	00022850 	andeq	r2, r2, r0, asr r8
 210:	00027800 	andeq	r7, r2, r0, lsl #16
 214:	5a000100 	bpl	61c <apll_mdiv+0x512>
	...
 220:	00000250 	andeq	r0, r0, r0, asr r2
 224:	00000278 	andeq	r0, r0, r8, ror r2
 228:	00510001 	subseq	r0, r1, r1
 22c:	00000000 	andeq	r0, r0, r0
 230:	0c000000 	stceq	0, cr0, [r0], {-0}
 234:	28000002 	stmdacs	r0, {r1}
 238:	01000002 	tsteq	r0, r2
 23c:	02285100 	eoreq	r5, r8, #0, 2
 240:	02940000 	addseq	r0, r4, #0
 244:	00010000 	andeq	r0, r1, r0
 248:	00000054 	andeq	r0, r0, r4, asr r0
 24c:	00000000 	andeq	r0, r0, r0
 250:	00025000 	andeq	r5, r2, r0
 254:	00025c00 	andeq	r5, r2, r0, lsl #24
 258:	30000200 	andcc	r0, r0, r0, lsl #4
 25c:	0000009f 	muleq	r0, pc, r0	; <UNPREDICTABLE>
 260:	00000000 	andeq	r0, r0, r0
 264:	00022800 	andeq	r2, r2, r0, lsl #16
 268:	00027800 	andeq	r7, r2, r0, lsl #16
 26c:	30000200 	andcc	r0, r0, r0, lsl #4
 270:	0000009f 	muleq	r0, pc, r0	; <UNPREDICTABLE>
 274:	00000000 	andeq	r0, r0, r0
 278:	00023400 	andeq	r3, r2, r0, lsl #8
 27c:	00027800 	andeq	r7, r2, r0, lsl #16
 280:	08000300 	stmdaeq	r0, {r8, r9}
 284:	00009f30 	andeq	r9, r0, r0, lsr pc
 288:	00000000 	andeq	r0, r0, r0
 28c:	02980000 	addseq	r0, r8, #0
 290:	02ac0000 	adceq	r0, ip, #0
 294:	00020000 	andeq	r0, r2, r0
 298:	02ac007d 	adceq	r0, ip, #125	; 0x7d
 29c:	03080000 	movweq	r0, #32768	; 0x8000
 2a0:	00020000 	andeq	r0, r2, r0
 2a4:	0000087d 	andeq	r0, r0, sp, ror r8
 2a8:	00000000 	andeq	r0, r0, r0
 2ac:	02980000 	addseq	r0, r8, #0
 2b0:	02a00000 	adceq	r0, r0, #0
 2b4:	00010000 	andeq	r0, r1, r0
 2b8:	0002a050 	andeq	sl, r2, r0, asr r0
 2bc:	00030800 	andeq	r0, r3, r0, lsl #16
 2c0:	f3000400 	vshl.u8	d0, d0, d0
 2c4:	009f5001 	addseq	r5, pc, r1
 2c8:	00000000 	andeq	r0, r0, r0
 2cc:	a0000000 	andge	r0, r0, r0
 2d0:	c4000002 	strgt	r0, [r0], #-2
 2d4:	01000002 	tsteq	r0, r2
 2d8:	02c45000 	sbceq	r5, r4, #0
 2dc:	03080000 	movweq	r0, #32768	; 0x8000
 2e0:	00060000 	andeq	r0, r6, r0
 2e4:	3b5001f3 	blcc	1400ab8 <R1_VE+0x400ab8>
 2e8:	00009f25 	andeq	r9, r0, r5, lsr #30
 2ec:	00000000 	andeq	r0, r0, r0
 2f0:	03080000 	movweq	r0, #32768	; 0x8000
 2f4:	030c0000 	movweq	r0, #49152	; 0xc000
 2f8:	00020000 	andeq	r0, r2, r0
 2fc:	030c007d 	movweq	r0, #49277	; 0xc07d
 300:	03d40000 	bicseq	r0, r4, #0
 304:	00020000 	andeq	r0, r2, r0
 308:	0000287d 	andeq	r2, r0, sp, ror r8
 30c:	00000000 	andeq	r0, r0, r0
 310:	03080000 	movweq	r0, #32768	; 0x8000
 314:	03400000 	movteq	r0, #0
 318:	00010000 	andeq	r0, r1, r0
 31c:	00034050 	andeq	r4, r3, r0, asr r0
 320:	0003d400 	andeq	sp, r3, r0, lsl #8
 324:	f3000400 	vshl.u8	d0, d0, d0
 328:	009f5001 	addseq	r5, pc, r1
 32c:	00000000 	andeq	r0, r0, r0
 330:	08000000 	stmdaeq	r0, {}	; <UNPREDICTABLE>
 334:	40000003 	andmi	r0, r0, r3
 338:	01000003 	tsteq	r0, r3
 33c:	03405100 	movteq	r5, #256	; 0x100
 340:	03d40000 	bicseq	r0, r4, #0
 344:	00010000 	andeq	r0, r1, r0
 348:	00000057 	andeq	r0, r0, r7, asr r0
 34c:	00000000 	andeq	r0, r0, r0
 350:	00030800 	andeq	r0, r3, r0, lsl #16
 354:	00034000 	andeq	r4, r3, r0
 358:	52000100 	andpl	r0, r0, #0, 2
 35c:	00000340 	andeq	r0, r0, r0, asr #6
 360:	000003d4 	ldrdeq	r0, [r0], -r4
 364:	00550001 	subseq	r0, r5, r1
 368:	00000000 	andeq	r0, r0, r0
 36c:	08000000 	stmdaeq	r0, {}	; <UNPREDICTABLE>
 370:	40000003 	andmi	r0, r0, r3
 374:	02000003 	andeq	r0, r0, #3
 378:	4c9f3000 	ldcmi	0, cr3, [pc], {0}
 37c:	60000003 	andvs	r0, r0, r3
 380:	01000003 	tsteq	r0, r3
 384:	03605b00 	cmneq	r0, #0, 22
 388:	03940000 	orrseq	r0, r4, #0
 38c:	00010000 	andeq	r0, r1, r0
 390:	00039453 	andeq	r9, r3, r3, asr r4
 394:	0003b800 	andeq	fp, r3, r0, lsl #16
 398:	5b000100 	blpl	7a0 <apll_mdiv+0x696>
	...
 3a4:	00000310 	andeq	r0, r0, r0, lsl r3
 3a8:	00000340 	andeq	r0, r0, r0, asr #6
 3ac:	40500001 	subsmi	r0, r0, r1
 3b0:	60000003 	andvs	r0, r0, r3
 3b4:	01000003 	tsteq	r0, r3
 3b8:	03ac5a00 			; <UNDEFINED> instruction: 0x03ac5a00
 3bc:	03b80000 			; <UNDEFINED> instruction: 0x03b80000
 3c0:	00010000 	andeq	r0, r1, r0
 3c4:	0000005a 	andeq	r0, r0, sl, asr r0
 3c8:	00000000 	andeq	r0, r0, r0
 3cc:	00032800 	andeq	r2, r3, r0, lsl #16
 3d0:	00034000 	andeq	r4, r3, r0
 3d4:	59000100 	stmdbpl	r0, {r8}
 3d8:	0000034c 	andeq	r0, r0, ip, asr #6
 3dc:	00000360 	andeq	r0, r0, r0, ror #6
 3e0:	ac590001 	mrrcge	0, 0, r0, r9, cr1
 3e4:	b8000003 	stmdalt	r0, {r0, r1}
 3e8:	02000003 	andeq	r0, r0, #3
 3ec:	009f3000 	addseq	r3, pc, r0
 3f0:	00000000 	andeq	r0, r0, r0
 3f4:	40000000 	andmi	r0, r0, r0
 3f8:	b8000003 	stmdalt	r0, {r0, r1}
 3fc:	03000003 	movweq	r0, #3
 400:	9f800900 	svcls	0x00800900
	...
 40c:	00000394 	muleq	r0, r4, r3
 410:	000003b8 			; <UNDEFINED> instruction: 0x000003b8
 414:	9f400002 	svcls	0x00400002
	...
 420:	000003d4 	ldrdeq	r0, [r0], -r4
 424:	000003d8 	ldrdeq	r0, [r0], -r8
 428:	007d0002 	rsbseq	r0, sp, r2
 42c:	000003d8 	ldrdeq	r0, [r0], -r8
 430:	00000428 	andeq	r0, r0, r8, lsr #8
 434:	107d0002 	rsbsne	r0, sp, r2
	...
 440:	000003d4 	ldrdeq	r0, [r0], -r4
 444:	000003e0 	andeq	r0, r0, r0, ror #7
 448:	e0500001 	subs	r0, r0, r1
 44c:	28000003 	stmdacs	r0, {r0, r1}
 450:	04000004 	streq	r0, [r0], #-4
 454:	5001f300 	andpl	pc, r1, r0, lsl #6
 458:	0000009f 	muleq	r0, pc, r0	; <UNPREDICTABLE>
 45c:	00000000 	andeq	r0, r0, r0
 460:	0003fc00 	andeq	pc, r3, r0, lsl #24
 464:	00040000 	andeq	r0, r4, r0
 468:	75000600 	strvc	r0, [r0, #-1536]	; 0x600
 46c:	1c007600 	stcne	6, cr7, [r0], {-0}
 470:	0004009f 	muleq	r4, pc, r0	; <UNPREDICTABLE>
 474:	00042800 	andeq	r2, r4, r0, lsl #16
 478:	55000100 	strpl	r0, [r0, #-256]	; 0x100
	...
 484:	000003d4 	ldrdeq	r0, [r0], -r4
 488:	000003e0 	andeq	r0, r0, r0, ror #7
 48c:	9f300002 	svcls	0x00300002
	...
 498:	00000428 	andeq	r0, r0, r8, lsr #8
 49c:	0000042c 	andeq	r0, r0, ip, lsr #8
 4a0:	007d0002 	rsbseq	r0, sp, r2
 4a4:	0000042c 	andeq	r0, r0, ip, lsr #8
 4a8:	0000047c 	andeq	r0, r0, ip, ror r4
 4ac:	187d0002 	ldmdane	sp!, {r1}^
	...
 4b8:	00000428 	andeq	r0, r0, r8, lsr #8
 4bc:	00000438 	andeq	r0, r0, r8, lsr r4
 4c0:	38500001 	ldmdacc	r0, {r0}^
 4c4:	7c000004 	stcvc	0, cr0, [r0], {4}
 4c8:	01000004 	tsteq	r0, r4
 4cc:	00005700 	andeq	r5, r0, r0, lsl #14
 4d0:	00000000 	andeq	r0, r0, r0
 4d4:	04280000 	strteq	r0, [r8], #-0
 4d8:	04380000 	ldrteq	r0, [r8], #-0
 4dc:	00010000 	andeq	r0, r1, r0
 4e0:	00043851 	andeq	r3, r4, r1, asr r8
 4e4:	00047c00 	andeq	r7, r4, r0, lsl #24
 4e8:	f3000400 	vshl.u8	d0, d0, d0
 4ec:	009f5101 	addseq	r5, pc, r1, lsl #2
 4f0:	00000000 	andeq	r0, r0, r0
 4f4:	30000000 	andcc	r0, r0, r0
 4f8:	38000004 	stmdacc	r0, {r2}
 4fc:	01000004 	tsteq	r0, r4
 500:	04385000 	ldrteq	r5, [r8], #-0
 504:	047c0000 	ldrbteq	r0, [ip], #-0
 508:	00010000 	andeq	r0, r1, r0
 50c:	00000057 	andeq	r0, r0, r7, asr r0
 510:	00000000 	andeq	r0, r0, r0
 514:	00043400 	andeq	r3, r4, r0, lsl #8
 518:	00043800 	andeq	r3, r4, r0, lsl #16
 51c:	51000100 	mrspl	r0, (UNDEF: 16)
 520:	00000454 	andeq	r0, r0, r4, asr r4
 524:	00000458 	andeq	r0, r0, r8, asr r4
 528:	00750006 	rsbseq	r0, r5, r6
 52c:	9f1c0076 	svcls	0x001c0076
 530:	00000458 	andeq	r0, r0, r8, asr r4
 534:	0000047c 	andeq	r0, r0, ip, ror r4
 538:	00550001 	subseq	r0, r5, r1
 53c:	00000000 	andeq	r0, r0, r0
 540:	30000000 	andcc	r0, r0, r0
 544:	38000004 	stmdacc	r0, {r2}
 548:	02000004 	andeq	r0, r0, #4
 54c:	009f3000 	addseq	r3, pc, r0
 550:	00000000 	andeq	r0, r0, r0
 554:	34000000 	strcc	r0, [r0], #-0
 558:	38000004 	stmdacc	r0, {r2}
 55c:	08000004 	stmdaeq	r0, {r2}
 560:	bfff7100 	svclt	0x00ff7100
 564:	254400c0 	strbcs	r0, [r4, #-192]	; 0xc0
 568:	0004389f 	muleq	r4, pc, r8	; <UNPREDICTABLE>
 56c:	00047c00 	andeq	r7, r4, r0, lsl #24
 570:	f3000a00 	vpmax.u8	d0, d0, d0
 574:	ff235101 			; <UNDEFINED> instruction: 0xff235101
 578:	254440bf 	strbcs	r4, [r4, #-191]	; 0xbf
 57c:	0000009f 	muleq	r0, pc, r0	; <UNPREDICTABLE>
 580:	00000000 	andeq	r0, r0, r0
 584:	00047c00 	andeq	r7, r4, r0, lsl #24
 588:	00049400 	andeq	r9, r4, r0, lsl #8
 58c:	50000100 	andpl	r0, r0, r0, lsl #2
 590:	00000494 	muleq	r0, r4, r4
 594:	000004a8 	andeq	r0, r0, r8, lsr #9
 598:	01f30004 	mvnseq	r0, r4
 59c:	00009f50 	andeq	r9, r0, r0, asr pc
 5a0:	00000000 	andeq	r0, r0, r0
 5a4:	047c0000 	ldrbteq	r0, [ip], #-0
 5a8:	04800000 	streq	r0, [r0], #0
 5ac:	00010000 	andeq	r0, r1, r0
 5b0:	00048051 	andeq	r8, r4, r1, asr r0
 5b4:	0004a800 	andeq	sl, r4, r0, lsl #16
 5b8:	71000300 	mrsvc	r0, LR_irq
 5bc:	00009f7d 	andeq	r9, r0, sp, ror pc
 5c0:	00000000 	andeq	r0, r0, r0
 5c4:	04880000 	streq	r0, [r8], #0
 5c8:	04980000 	ldreq	r0, [r8], #0
 5cc:	00010000 	andeq	r0, r1, r0
 5d0:	00049853 	andeq	r9, r4, r3, asr r8
 5d4:	0004a000 	andeq	sl, r4, r0
 5d8:	73000300 	movwvc	r0, #768	; 0x300
 5dc:	04a09f01 	strteq	r9, [r0], #3841	; 0xf01
 5e0:	04a80000 	strteq	r0, [r8], #0
 5e4:	00010000 	andeq	r0, r1, r0
 5e8:	00000053 	andeq	r0, r0, r3, asr r0
 5ec:	00000000 	andeq	r0, r0, r0
 5f0:	00002000 	andeq	r2, r0, r0
 5f4:	00004000 	andeq	r4, r0, r0
 5f8:	50000100 	andpl	r0, r0, r0, lsl #2
 5fc:	00000040 	andeq	r0, r0, r0, asr #32
 600:	00000048 	andeq	r0, r0, r8, asr #32
 604:	01f30004 	mvnseq	r0, r4
 608:	00009f50 	andeq	r9, r0, r0, asr pc
 60c:	00000000 	andeq	r0, r0, r0
 610:	002c0000 	eoreq	r0, ip, r0
 614:	00300000 	eorseq	r0, r0, r0
 618:	00010000 	andeq	r0, r1, r0
 61c:	00000053 	andeq	r0, r0, r3, asr r0
 620:	00000000 	andeq	r0, r0, r0
 624:	00005400 	andeq	r5, r0, r0, lsl #8
 628:	00005800 	andeq	r5, r0, r0, lsl #16
 62c:	53000100 	movwpl	r0, #256	; 0x100
	...
 638:	00000070 	andeq	r0, r0, r0, ror r0
 63c:	00000084 	andeq	r0, r0, r4, lsl #1
 640:	84500001 	ldrbhi	r0, [r0], #-1
 644:	b0000000 	andlt	r0, r0, r0
 648:	04000000 	streq	r0, [r0], #-0
 64c:	5001f300 	andpl	pc, r1, r0, lsl #6
 650:	0000009f 	muleq	r0, pc, r0	; <UNPREDICTABLE>
 654:	00000000 	andeq	r0, r0, r0
 658:	00007000 	andeq	r7, r0, r0
 65c:	00008400 	andeq	r8, r0, r0, lsl #8
 660:	30000200 	andcc	r0, r0, r0, lsl #4
 664:	0000009f 	muleq	r0, pc, r0	; <UNPREDICTABLE>
 668:	00000000 	andeq	r0, r0, r0
 66c:	00008800 	andeq	r8, r0, r0, lsl #16
 670:	00008c00 	andeq	r8, r0, r0, lsl #24
 674:	53000100 	movwpl	r0, #256	; 0x100
	...
 680:	000000bc 	strheq	r0, [r0], -ip
 684:	000000d0 	ldrdeq	r0, [r0], -r0	; <UNPREDICTABLE>
 688:	d0500001 	subsle	r0, r0, r1
 68c:	00000000 	andeq	r0, r0, r0
 690:	02000001 	andeq	r0, r0, #1
 694:	00007300 	andeq	r7, r0, r0, lsl #6
 698:	10000001 	andne	r0, r0, r1
 69c:	01000001 	tsteq	r0, r1
 6a0:	01105000 	tsteq	r0, r0
 6a4:	01480000 	mrseq	r0, (UNDEF: 72)
 6a8:	00020000 	andeq	r0, r2, r0
 6ac:	01482871 	hvceq	33409	; 0x8281
 6b0:	014c0000 	mrseq	r0, (UNDEF: 76)
 6b4:	00080000 	andeq	r0, r8, r0
 6b8:	000c1803 	andeq	r1, ip, r3, lsl #16
 6bc:	2823060c 	stmdacs	r3!, {r2, r3, r9, sl}
 6c0:	0000014c 	andeq	r0, r0, ip, asr #2
 6c4:	0000015c 	andeq	r0, r0, ip, asr r1
 6c8:	18030008 	stmdane	r3, {r3}
 6cc:	060c000c 	streq	r0, [ip], -ip
 6d0:	00002823 	andeq	r2, r0, r3, lsr #16
 6d4:	00000000 	andeq	r0, r0, r0
 6d8:	0a080000 	beq	2006e0 <SVC_stack_size+0x1f06e0>
 6dc:	0a0c0c00 	beq	3036e4 <SVC_stack_size+0x2f36e4>
 6e0:	00020c00 	andeq	r0, r2, r0, lsl #24
 6e4:	0a0c007d 	beq	3008e0 <SVC_stack_size+0x2f08e0>
 6e8:	0a140c00 	beq	5036f0 <SVC_stack_size+0x4f36f0>
 6ec:	00020c00 	andeq	r0, r2, r0, lsl #24
 6f0:	0a140c7d 	beq	5038ec <SVC_stack_size+0x4f38ec>
 6f4:	0a9c0c00 	beq	fe7036fc <vinform3+0x4bcf3cf0>
 6f8:	00020c00 	andeq	r0, r2, r0, lsl #24
 6fc:	0000187d 	andeq	r1, r0, sp, ror r8
 700:	00000000 	andeq	r0, r0, r0
 704:	0a080000 	beq	20070c <SVC_stack_size+0x1f070c>
 708:	0a1c0c00 	beq	703710 <SVC_stack_size+0x6f3710>
 70c:	00010c00 	andeq	r0, r1, r0, lsl #24
 710:	000a1c50 	andeq	r1, sl, r0, asr ip
 714:	000a9c0c 	andeq	r9, sl, ip, lsl #24
 718:	5500010c 	strpl	r0, [r0, #-268]	; 0x10c
	...
 724:	0c000a08 	stceq	10, cr0, [r0], {8}
 728:	0c000a1c 	stceq	10, cr0, [r0], {28}
 72c:	9f300002 	svcls	0x00300002
 730:	0c000a74 	stceq	10, cr0, [r0], {116}	; 0x74
 734:	0c000a78 	stceq	10, cr0, [r0], {120}	; 0x78
 738:	9f300002 	svcls	0x00300002
 73c:	0c000a84 	stceq	10, cr0, [r0], {132}	; 0x84
 740:	0c000a9c 	stceq	10, cr0, [r0], {156}	; 0x9c
 744:	00540001 	subseq	r0, r4, r1
 748:	00000000 	andeq	r0, r0, r0
 74c:	34000000 	strcc	r0, [r0], #-0
 750:	380c000a 	stmdacc	ip, {r1, r3}
 754:	020c000a 	andeq	r0, ip, #10
 758:	3c679100 	stfccp	f1, [r7], #-0
 75c:	540c000a 	strpl	r0, [ip], #-10
 760:	010c000a 	tsteq	ip, sl
 764:	0a5c5000 	beq	171476c <R1_VE+0x71476c>
 768:	0a680c00 	beq	1a03770 <R1_VE+0xa03770>
 76c:	00010c00 	andeq	r0, r1, r0, lsl #24
 770:	000a6c50 	andeq	r6, sl, r0, asr ip
 774:	000a6f0c 	andeq	r6, sl, ip, lsl #30
 778:	5000010c 	andpl	r0, r0, ip, lsl #2
	...
 784:	0c000a9c 	stceq	10, cr0, [r0], {156}	; 0x9c
 788:	0c000aa0 	stceq	10, cr0, [r0], {160}	; 0xa0
 78c:	007d0002 	rsbseq	r0, sp, r2
 790:	0c000aa0 	stceq	10, cr0, [r0], {160}	; 0xa0
 794:	0c000b70 	stceq	11, cr0, [r0], {112}	; 0x70
 798:	087d0002 	ldmdaeq	sp!, {r1}^
	...
 7a4:	0c000aac 	stceq	10, cr0, [r0], {172}	; 0xac
 7a8:	0c000ab8 	stceq	10, cr0, [r0], {184}	; 0xb8
 7ac:	9f300002 	svcls	0x00300002
 7b0:	0c000ad4 	stceq	10, cr0, [r0], {212}	; 0xd4
 7b4:	0c000b18 	stceq	11, cr0, [r0], {24}
 7b8:	9f300002 	svcls	0x00300002
	...
 7c4:	0c000a9c 	stceq	10, cr0, [r0], {156}	; 0x9c
 7c8:	0c000b2c 	stceq	11, cr0, [r0], {44}	; 0x2c
 7cc:	9f300002 	svcls	0x00300002
 7d0:	0c000b2c 	stceq	11, cr0, [r0], {44}	; 0x2c
 7d4:	0c000b34 	stceq	11, cr0, [r0], {52}	; 0x34
 7d8:	9f310002 	svcls	0x00310002
 7dc:	0c000b38 	stceq	11, cr0, [r0], {56}	; 0x38
 7e0:	0c000b70 	stceq	11, cr0, [r0], {112}	; 0x70
 7e4:	9f300002 	svcls	0x00300002
	...

Disassembly of section .debug_str:

00000000 <.debug_str>:
   0:	43525f54 	cmpmi	r2, #84, 30	; 0x150
   4:	52494400 	subpl	r4, r9, #0, 8
   8:	43544345 	cmpmi	r4, #335544321	; 0x14000001
   c:	5500444d 	strpl	r4, [r0, #-1101]	; 0x44d
  10:	5f524553 	svcpl	0x00524553
  14:	54415453 	strbpl	r5, [r1], #-1107	; 0x453
  18:	4d454d00 	stclmi	13, cr4, [r5, #-0]
  1c:	32474643 	subcc	r4, r7, #70254592	; 0x4300000
  20:	4d5f5400 	cfldrdmi	mvd5, [pc, #-0]	; 28 <MODEMASK+0x9>
  24:	70004452 	andvc	r4, r0, r2, asr r4
  28:	72645f67 	rsbvc	r5, r4, #412	; 0x19c
  2c:	725f6d61 	subsvc	r6, pc, #6208	; 0x1840
  30:	43006765 	movwmi	r6, #1893	; 0x765
  34:	5f504948 	svcpl	0x00504948
  38:	46435f31 			; <UNDEFINED> instruction: 0x46435f31
  3c:	72730047 	rsbsvc	r0, r3, #71	; 0x47
  40:	635f6d6f 	cmpvs	pc, #7104	; 0x1bc0
  44:	695f3073 	ldmdbvs	pc, {r0, r1, r4, r5, r6, ip, sp}^	; <UNPREDICTABLE>
  48:	0074696e 	rsbseq	r6, r4, lr, ror #18
  4c:	61726150 	cmnvs	r2, r0, asr r1
  50:	4443525f 	strbmi	r5, [r3], #-607	; 0x25f
  54:	525f5400 	subspl	r5, pc, #0, 8
  58:	41430050 	qdaddmi	r0, r0, r3
  5c:	54414c53 	strbpl	r4, [r1], #-3155	; 0xc53
  60:	5f444900 	svcpl	0x00444900
  64:	46435f33 			; <UNDEFINED> instruction: 0x46435f33
  68:	44490047 	strbmi	r0, [r9], #-71	; 0x47
  6c:	435f385f 	cmpmi	pc, #6225920	; 0x5f0000
  70:	75004746 	strvc	r4, [r0, #-1862]	; 0x746
  74:	61726150 	cmnvs	r2, r0, asr r1
  78:	4346525f 	movtmi	r5, #25183	; 0x625f
  7c:	5f444900 	svcpl	0x00444900
  80:	435f3231 	cmpmi	pc, #268435459	; 0x10000003
  84:	54004746 	strpl	r4, [r0], #-1862	; 0x746
  88:	0052575f 	subseq	r5, r2, pc, asr r7
  8c:	72615075 	rsbvc	r5, r1, #117	; 0x75
  90:	53585f61 	cmppl	r8, #388	; 0x184
  94:	5f540052 	svcpl	0x00540052
  98:	4d005058 	stcmi	0, cr5, [r0, #-352]	; 0xfffffea0
  9c:	43434d45 	movtmi	r4, #15685	; 0x3d45
  a0:	7500444d 	strvc	r4, [r0, #-1101]	; 0x44d
  a4:	6769736e 	strbvs	r7, [r9, -lr, ror #6]!
  a8:	2064656e 	rsbcs	r6, r4, lr, ror #10
  ac:	72616863 	rsbvc	r6, r1, #6488064	; 0x630000
  b0:	6d657400 	cfstrdvs	mvd7, [r5, #-0]
  b4:	68730070 	ldmdavs	r3!, {r4, r5, r6}^
  b8:	2074726f 	rsbscs	r7, r4, pc, ror #4
  bc:	69736e75 	ldmdbvs	r3!, {r0, r2, r4, r5, r6, r9, sl, fp, sp, lr}^
  c0:	64656e67 	strbtvs	r6, [r5], #-3687	; 0xe67
  c4:	746e6920 	strbtvc	r6, [lr], #-2336	; 0x920
  c8:	4d454d00 	stclmi	13, cr4, [r5, #-0]
  cc:	54415453 	strbpl	r5, [r1], #-1107	; 0x453
  d0:	5f444900 	svcpl	0x00444900
  d4:	46435f34 			; <UNDEFINED> instruction: 0x46435f34
  d8:	454d0047 	strbmi	r0, [sp, #-71]	; 0x47
  dc:	4746434d 	strbmi	r4, [r6, -sp, asr #6]
  e0:	5f444900 	svcpl	0x00444900
  e4:	46435f30 			; <UNDEFINED> instruction: 0x46435f30
  e8:	5f540047 	svcpl	0x00540047
  ec:	00434652 	subeq	r4, r3, r2, asr r6
  f0:	315f4449 	cmpcc	pc, r9, asr #8
  f4:	46435f33 			; <UNDEFINED> instruction: 0x46435f33
  f8:	67700047 	ldrbvs	r0, [r0, -r7, asr #32]!
  fc:	6f72735f 	svcvs	0x0072735f
 100:	65725f6d 	ldrbvs	r5, [r2, #-3949]!	; 0xf6d
 104:	5f540067 	svcpl	0x00540067
 108:	00525358 	subseq	r5, r2, r8, asr r3
 10c:	4d4f5253 	sfmmi	f5, 2, [pc, #-332]	; ffffffc8 <vinform3+0x4d5f05bc>
 110:	0057425f 	subseq	r4, r7, pc, asr r2
 114:	52464552 	subpl	r4, r6, #343932928	; 0x14800000
 118:	00485345 	subeq	r5, r8, r5, asr #6
 11c:	315f4449 	cmpcc	pc, r9, asr #8
 120:	46435f34 			; <UNDEFINED> instruction: 0x46435f34
 124:	50750047 	rsbspl	r0, r5, r7, asr #32
 128:	5f617261 	svcpl	0x00617261
 12c:	6c005052 	stcvs	0, cr5, [r0], {82}	; 0x52
 130:	20676e6f 	rsbcs	r6, r7, pc, ror #28
 134:	676e6f6c 	strbvs	r6, [lr, -ip, ror #30]!
 138:	736e7520 	cmnvc	lr, #32, 10	; 0x8000000
 13c:	656e6769 	strbvs	r6, [lr, #-1897]!	; 0x769
 140:	6e692064 	cdpvs	0, 6, cr2, cr9, cr4, {3}
 144:	44490074 	strbmi	r0, [r9], #-116	; 0x74
 148:	435f395f 	cmpmi	pc, #1556480	; 0x17c000
 14c:	53004746 	movwpl	r4, #1862	; 0x746
 150:	5f4d4f52 	svcpl	0x004d4f52
 154:	00314342 	eorseq	r4, r1, r2, asr #6
 158:	355f4449 	ldrbcc	r4, [pc, #-1097]	; fffffd17 <vinform3+0x4d5f030b>
 15c:	4746435f 	smlsldmi	r4, r6, pc, r3	; <UNPREDICTABLE>
 160:	5c3a6500 	cfldr32pl	mvfx6, [sl], #-0
 164:	726f7741 	rsbvc	r7, pc, #17039360	; 0x1040000
 168:	63455c6b 	movtvs	r5, #23659	; 0x5c6b
 16c:	7370696c 	cmnvc	r0, #108, 18	; 0x1b0000
 170:	726f5765 	rsbvc	r5, pc, #26476544	; 0x1940000
 174:	6170736b 	cmnvs	r0, fp, ror #6
 178:	735c6563 	cmpvc	ip, #415236096	; 0x18c00000
 17c:	6f6f6264 	svcvs	0x006f6264
 180:	31343674 	teqcc	r4, r4, ror r6
 184:	6a645c30 	bvs	191724c <R1_VE+0x91724c>
 188:	5c736f79 	ldclpl	15, cr6, [r3], #-484	; 0xfffffe1c
 18c:	74726f70 	ldrbtvc	r6, [r2], #-3952	; 0xf70
 190:	5f444900 	svcpl	0x00444900
 194:	46435f31 			; <UNDEFINED> instruction: 0x46435f31
 198:	5f540047 	svcpl	0x00540047
 19c:	00525457 	subseq	r5, r2, r7, asr r4
 1a0:	4d4f5253 	sfmmi	f5, 2, [pc, #-332]	; 5c <MODEMASK+0x3d>
 1a4:	3343425f 	movtcc	r4, #12895	; 0x325f
 1a8:	4f525300 	svcmi	0x00525300
 1ac:	43425f4d 	movtmi	r5, #12109	; 0x2f4d
 1b0:	52530030 	subspl	r0, r3, #48	; 0x30
 1b4:	425f4d4f 	subsmi	r4, pc, #5056	; 0x13c0
 1b8:	73003243 	movwvc	r3, #579	; 0x243
 1bc:	74657a69 	strbtvc	r7, [r5], #-2665	; 0xa69
 1c0:	00657079 	rsbeq	r7, r5, r9, ror r0
 1c4:	676e6f6c 	strbvs	r6, [lr, -ip, ror #30]!
 1c8:	6e6f6c20 	cdpvs	12, 6, cr6, cr15, cr0, {1}
 1cc:	6e692067 	cdpvs	0, 6, cr2, cr9, cr7, {3}
 1d0:	53550074 	cmppl	r5, #116	; 0x74
 1d4:	435f5245 	cmpmi	pc, #1342177284	; 0x50000004
 1d8:	43004746 	movwmi	r4, #1862	; 0x746
 1dc:	5f504948 	svcpl	0x00504948
 1e0:	46435f30 			; <UNDEFINED> instruction: 0x46435f30
 1e4:	44490047 	strbmi	r0, [r9], #-71	; 0x47
 1e8:	5f30315f 	svcpl	0x0030315f
 1ec:	00474643 	subeq	r4, r7, r3, asr #12
 1f0:	4d4f5253 	sfmmi	f5, 2, [pc, #-332]	; ac <MODEMASK+0x8d>
 1f4:	3443425f 	strbcc	r4, [r3], #-607	; 0x25f
 1f8:	73657200 	cmnvc	r5, #0, 4
 1fc:	65767265 	ldrbvs	r7, [r6, #-613]!	; 0x265
 200:	47003364 	strmi	r3, [r0, -r4, ror #6]
 204:	4320554e 	teqmi	r0, #327155712	; 0x13800000
 208:	372e3420 	strcc	r3, [lr, -r0, lsr #8]!
 20c:	5400322e 	strpl	r3, [r0], #-558	; 0x22e
 210:	4452525f 	ldrbmi	r5, [r2], #-607	; 0x25f
 214:	68635300 	stmdavs	r3!, {r8, r9, ip, lr}^
 218:	6c756465 	cfldrdvs	mvd6, [r5], #-404	; 0xfffffe6c
 21c:	505f6465 	subspl	r6, pc, r5, ror #8
 220:	00617261 	rsbeq	r7, r1, r1, ror #4
 224:	4d4f5253 	sfmmi	f5, 2, [pc, #-332]	; e0 <NOINT+0x20>
 228:	3543425f 	strbcc	r4, [r3, #-607]	; 0x25f
 22c:	6f687300 	svcvs	0x00687300
 230:	69207472 	stmdbvs	r0!, {r1, r4, r5, r6, sl, ip, sp, lr}
 234:	6d00746e 	cfstrsvs	mvf7, [r0, #-440]	; 0xfffffe48
 238:	66636d65 	strbtvs	r6, [r3], -r5, ror #26
 23c:	00632e67 	rsbeq	r2, r3, r7, ror #28
 240:	43525f54 	cmpmi	r2, #84, 30	; 0x150
 244:	69750044 	ldmdbvs	r5!, {r2, r6}^
 248:	3233746e 	eorscc	r7, r3, #1845493760	; 0x6e000000
 24c:	5400745f 	strpl	r7, [r0], #-1119	; 0x45f
 250:	5351445f 	cmppl	r1, #1593835520	; 0x5f000000
 254:	44490053 	strbmi	r0, [r9], #-83	; 0x53
 258:	435f365f 	cmpmi	pc, #99614720	; 0x5f00000
 25c:	49004746 	stmdbmi	r0, {r1, r2, r6, r8, r9, sl, lr}
 260:	31315f44 	teqcc	r1, r4, asr #30
 264:	4746435f 	smlsldmi	r4, r6, pc, r3	; <UNPREDICTABLE>
 268:	455f5400 	ldrbmi	r5, [pc, #-1024]	; fffffe70 <vinform3+0x4d5f0464>
 26c:	54005253 	strpl	r5, [r0], #-595	; 0x253
 270:	5341525f 	movtpl	r5, #4703	; 0x125f
 274:	61726400 	cmnvs	r2, r0, lsl #8
 278:	6e695f6d 	cdpvs	15, 6, cr5, cr9, cr13, {3}
 27c:	72007469 	andvc	r7, r0, #1761607680	; 0x69000000
 280:	72657365 	rsbvc	r7, r5, #-1811939327	; 0x94000001
 284:	31646576 	smccc	18006	; 0x4656
 288:	73657200 	cmnvc	r5, #0, 4
 28c:	65767265 	ldrbvs	r7, [r6, #-613]!	; 0x265
 290:	49003264 	stmdbmi	r0, {r2, r5, r6, r9, ip, sp}
 294:	35315f44 	ldrcc	r5, [r1, #-3908]!	; 0xf44
 298:	4746435f 	smlsldmi	r4, r6, pc, r3	; <UNPREDICTABLE>
 29c:	5f444900 	svcpl	0x00444900
 2a0:	46435f32 			; <UNDEFINED> instruction: 0x46435f32
 2a4:	44490047 	strbmi	r0, [r9], #-71	; 0x47
 2a8:	435f375f 	cmpmi	pc, #24903680	; 0x17c0000
 2ac:	6e004746 	cdpvs	7, 0, cr4, cr0, cr6, {2}
 2b0:	5f646e61 	svcpl	0x00646e61
 2b4:	64616572 	strbtvs	r6, [r1], #-1394	; 0x572
 2b8:	6174735f 	cmnvs	r4, pc, asr r3
 2bc:	00737574 	rsbseq	r7, r3, r4, ror r5
 2c0:	69676562 	stmdbvs	r7!, {r1, r5, r6, r8, sl, sp, lr}^
 2c4:	6170006e 	cmnvs	r0, lr, rrx
 2c8:	63006567 	movwvs	r6, #1383	; 0x567
 2cc:	746e756f 	strbtvc	r7, [lr], #-1391	; 0x56f
 2d0:	6e616e00 	cdpvs	14, 6, cr6, cr1, cr0, {0}
 2d4:	6e695f64 	cdpvs	15, 6, cr5, cr9, cr4, {3}
 2d8:	73007469 	movwvc	r7, #1129	; 0x469
 2dc:	00657a69 	rsbeq	r7, r5, r9, ror #20
 2e0:	676e656c 	strbvs	r6, [lr, -ip, ror #10]!
 2e4:	6e006874 	mcrvs	8, 0, r6, cr0, cr4, {3}
 2e8:	5f646e61 	svcpl	0x00646e61
 2ec:	72646461 	rsbvc	r6, r4, #1627389952	; 0x61000000
 2f0:	6e616e00 	cdpvs	14, 6, cr6, cr1, cr0, {0}
 2f4:	00632e64 	rsbeq	r2, r3, r4, ror #28
 2f8:	636f6c62 	cmnvs	pc, #25088	; 0x6200
 2fc:	6400736b 	strvs	r7, [r0], #-875	; 0x36b
 300:	00747365 	rsbseq	r7, r4, r5, ror #6
 304:	646e616e 	strbtvs	r6, [lr], #-366	; 0x16e
 308:	6172655f 	cmnvs	r2, pc, asr r5
 30c:	6e006573 	cfrshl64vs	mvdx0, mvdx3, r6
 310:	5f646e61 	svcpl	0x00646e61
 314:	64616572 	strbtvs	r6, [r1], #-1394	; 0x572
 318:	6e616e00 	cdpvs	14, 6, cr6, cr1, cr0, {0}
 31c:	65725f64 	ldrbvs	r5, [r2, #-3940]!	; 0xf64
 320:	00746573 	rsbseq	r6, r4, r3, ror r5
 324:	646e616e 	strbtvs	r6, [lr], #-366	; 0x16e
 328:	6174735f 	cmnvs	r4, pc, asr r3
 32c:	73007472 	movwvc	r7, #1138	; 0x472
 330:	65726f74 	ldrbvs	r6, [r2, #-3956]!	; 0xf74
 334:	6e616e32 	mcrvs	14, 3, r6, cr1, cr2, {1}
 338:	65720064 	ldrbvs	r0, [r2, #-100]!	; 0x64
 33c:	64007473 	strvs	r7, [r0], #-1139	; 0x473
 340:	735f7264 	cmpvc	pc, #100, 4	; 0x40000006
 344:	74726174 	ldrbtvc	r6, [r2], #-372	; 0x174
 348:	6c6f6300 	stclvs	3, cr6, [pc], #-0	; 350 <apll_mdiv+0x246>
 34c:	006e6d75 	rsbeq	r6, lr, r5, ror sp
 350:	646e616e 	strbtvs	r6, [lr], #-366	; 0x16e
 354:	6165725f 	cmnvs	r5, pc, asr r2
 358:	70007964 	andvc	r7, r0, r4, ror #18
 35c:	746e6972 	strbtvc	r6, [lr], #-2418	; 0x972
 360:	74735f66 	ldrbtvc	r5, [r3], #-3942	; 0xf66
 364:	6c630072 	stclvs	0, cr0, [r3], #-456	; 0xfffffe38
 368:	5f726165 	svcpl	0x00726165
 36c:	00737362 	rsbseq	r7, r3, r2, ror #6
 370:	646e616e 	strbtvs	r6, [lr], #-366	; 0x16e
 374:	6c65735f 	stclvs	3, cr7, [r5], #-380	; 0xfffffe84
 378:	00746365 	rsbseq	r6, r4, r5, ror #6
 37c:	79706f63 	ldmdbvc	r0!, {r0, r1, r5, r6, r8, r9, sl, fp, sp, lr}^
 380:	72646432 	rsbvc	r6, r4, #838860800	; 0x32000000
 384:	6e616e00 	cdpvs	14, 6, cr6, cr1, cr0, {0}
 388:	72655f64 	rsbvc	r5, r5, #100, 30	; 0x190
 38c:	5f657361 	svcpl	0x00657361
 390:	636f6c62 	cmnvs	pc, #25088	; 0x6200
 394:	616e006b 	cmnvs	lr, fp, rrx
 398:	775f646e 	ldrbvc	r6, [pc, -lr, ror #8]
 39c:	65746972 	ldrbvs	r6, [r4, #-2418]!	; 0x972
 3a0:	6e616e00 	cdpvs	14, 6, cr6, cr1, cr0, {0}
 3a4:	65645f64 	strbvs	r5, [r4, #-3940]!	; 0xf64
 3a8:	656c6573 	strbvs	r6, [ip, #-1395]!	; 0x573
 3ac:	6e007463 	cdpvs	4, 0, cr7, cr0, cr3, {3}
 3b0:	5f646e61 	svcpl	0x00646e61
 3b4:	00646d63 	rsbeq	r6, r4, r3, ror #26
 3b8:	5f525750 	svcpl	0x00525750
 3bc:	42415453 	submi	r5, r1, #1392508928	; 0x53000000
 3c0:	5500454c 	strpl	r4, [r0, #-1356]	; 0x54c
 3c4:	00485852 	subeq	r5, r8, r2, asr r8
 3c8:	45504c53 	ldrbmi	r4, [r0, #-3155]	; 0xc53
 3cc:	4945004e 	stmdbmi	r5, {r1, r2, r3, r6}^
 3d0:	3635544e 	ldrtcc	r5, [r5], -lr, asr #8
 3d4:	43544c46 	cmpmi	r4, #17920	; 0x4600
 3d8:	75004e4f 	strvc	r4, [r0, #-3663]	; 0xe4f
 3dc:	5f673631 	svcpl	0x00673631
 3e0:	74747665 	ldrbtvc	r7, [r4], #-1637	; 0x665
 3e4:	7261755f 	rsbvc	r7, r1, #398458880	; 0x17c00000
 3e8:	655f3274 	ldrbvs	r3, [pc, #-628]	; 17c <apll_mdiv+0x72>
 3ec:	726f7272 	rsbvc	r7, pc, #536870919	; 0x20000007
 3f0:	4b4c4200 	blmi	1310bf8 <R1_VE+0x310bf8>
 3f4:	5257505f 	subspl	r5, r7, #95	; 0x5f
 3f8:	4154535f 	cmpmi	r4, pc, asr r3
 3fc:	50530054 	subspl	r0, r3, r4, asr r0
 400:	534e4f43 	movtpl	r4, #61251	; 0xef43
 404:	4700504c 	strmi	r5, [r0, -ip, asr #32]
 408:	55504450 	ldrbpl	r4, [r0, #-1104]	; 0x450
 40c:	454d0044 	strbmi	r0, [sp, #-68]	; 0x44
 410:	59535f4d 	ldmdbpl	r3, {r0, r2, r3, r6, r8, r9, sl, fp, ip, lr}^
 414:	46435f53 			; <UNDEFINED> instruction: 0x46435f53
 418:	534f0047 	movtpl	r0, #61511	; 0xf047
 41c:	52465f43 	subpl	r5, r6, #268	; 0x10c
 420:	47005145 	strmi	r5, [r0, -r5, asr #2]
 424:	55504d50 	ldrbpl	r4, [r0, #-3408]	; 0xd50
 428:	50470044 	subpl	r0, r7, r4, asr #32
 42c:	54414449 	strbpl	r4, [r1], #-1097	; 0x449
 430:	52455500 	subpl	r5, r5, #0, 10
 434:	54415453 	strbpl	r5, [r1], #-1107	; 0x453
 438:	4e494500 	cdpmi	5, 4, cr4, cr9, cr0, {0}
 43c:	46323154 			; <UNDEFINED> instruction: 0x46323154
 440:	4f43544c 	svcmi	0x0043544c
 444:	5047004e 	subpl	r0, r7, lr, asr #32
 448:	4e4f4349 	cdpmi	3, 4, cr4, cr15, cr9, {2}
 44c:	44415000 	strbmi	r5, [r1], #-0
 450:	50003033 	andpl	r3, r0, r3, lsr r0
 454:	31334441 	teqcc	r3, r1, asr #8
 458:	44415000 	strbmi	r5, [r1], #-0
 45c:	4d003233 	sfmmi	f3, 4, [r0, #-204]	; 0xffffff34
 460:	435f4d45 	cmpmi	pc, #4416	; 0x1140
 464:	535f4746 	cmppl	pc, #18350080	; 0x1180000
 468:	00544154 	subseq	r4, r4, r4, asr r1
 46c:	67363175 			; <UNDEFINED> instruction: 0x67363175
 470:	7476655f 	ldrbtvc	r6, [r6], #-1375	; 0x55f
 474:	61755f74 	cmnvs	r5, r4, ror pc
 478:	5f307472 	svcpl	0x00307472
 47c:	6f727265 	svcvs	0x00727265
 480:	454d0072 	strbmi	r0, [sp, #-114]	; 0x72
 484:	4f43314d 	svcmi	0x0043314d
 488:	4f54534e 	svcmi	0x0054534e
 48c:	45530050 	ldrbmi	r0, [r3, #-80]	; 0x50
 490:	43495652 	movtmi	r5, #38482	; 0x9652
 494:	4e455045 	cdpmi	0, 4, cr5, cr5, cr5, {2}
 498:	65720044 	ldrbvs	r0, [r2, #-68]!	; 0x44
 49c:	625f6461 	subsvs	r6, pc, #1627389952	; 0x61000000
 4a0:	00657479 	rsbeq	r7, r5, r9, ror r4
 4a4:	434a5047 	movtmi	r5, #41031	; 0xa047
 4a8:	43004e4f 	movwmi	r4, #3663	; 0xe4f
 4ac:	445f4b4c 	ldrbmi	r4, [pc], #-2892	; 4b4 <apll_mdiv+0x3aa>
 4b0:	00305649 	eorseq	r5, r0, r9, asr #12
 4b4:	43495047 	movtmi	r5, #36935	; 0x9047
 4b8:	4c534e4f 	mrrcmi	14, 4, r4, r3, cr15
 4bc:	49450050 	stmdbmi	r5, {r4, r6}^
 4c0:	4d5f544e 	cfldrdmi	mvd5, [pc, #-312]	; 390 <apll_mdiv+0x286>
 4c4:	004b5341 	subeq	r5, fp, r1, asr #6
 4c8:	4c4c504d 	mcrrmi	0, 4, r5, ip, cr13
 4cc:	4e4f435f 	mcrmi	3, 2, r4, cr15, cr15, {2}
 4d0:	4c434800 	mcrrmi	8, 0, r4, r3, cr0
 4d4:	41475f4b 	cmpmi	r7, fp, asr #30
 4d8:	45004554 	strmi	r4, [r0, #-1364]	; 0x554
 4dc:	37544e49 	ldrbcc	r4, [r4, -r9, asr #28]
 4e0:	4e455038 	mcrmi	0, 2, r5, cr5, cr8, {1}
 4e4:	50470044 	subpl	r0, r7, r4, asr #32
 4e8:	44555043 	ldrbmi	r5, [r5], #-67	; 0x43
 4ec:	4c504500 	cfldr64mi	mvdx4, [r0], {-0}
 4f0:	4f435f4c 	svcmi	0x00435f4c
 4f4:	5500304e 	strpl	r3, [r0, #-78]	; 0x4e
 4f8:	4e4f434d 	cdpmi	3, 4, cr4, cr15, cr13, {2}
 4fc:	6f6f6200 	svcvs	0x006f6200
 500:	00745f6c 	rsbseq	r5, r4, ip, ror #30
 504:	5f534f51 	svcpl	0x00534f51
 508:	5245564f 	subpl	r5, r5, #82837504	; 0x4f00000
 50c:	45444952 	strbmi	r4, [r4, #-2386]	; 0x952
 510:	4f510030 	svcmi	0x00510030
 514:	564f5f53 			; <UNDEFINED> instruction: 0x564f5f53
 518:	49525245 	ldmdbmi	r2, {r0, r2, r6, r9, ip, lr}^
 51c:	00314544 	eorseq	r4, r1, r4, asr #10
 520:	44485047 	strbmi	r5, [r8], #-71	; 0x47
 524:	47005441 	strmi	r5, [r0, -r1, asr #8]
 528:	41445150 	cmpmi	r4, r0, asr r1
 52c:	50450054 	subpl	r0, r5, r4, asr r0
 530:	4c5f4c4c 	mrrcmi	12, 4, r4, pc, cr12	; <UNPREDICTABLE>
 534:	004b434f 	subeq	r4, fp, pc, asr #6
 538:	43515047 	cmpmi	r1, #71	; 0x47
 53c:	4f004e4f 	svcmi	0x00004e4f
 540:	52454854 	subpl	r4, r5, #84, 16	; 0x540000
 544:	65720053 	ldrbvs	r0, [r2, #-83]!	; 0x53
 548:	76726573 			; <UNDEFINED> instruction: 0x76726573
 54c:	72003165 	andvc	r3, r0, #1073741849	; 0x40000019
 550:	72657365 	rsbvc	r7, r5, #-1811939327	; 0x94000001
 554:	00326576 	eorseq	r6, r2, r6, ror r5
 558:	65736572 	ldrbvs	r6, [r3, #-1394]!	; 0x572
 55c:	33657672 	cmncc	r5, #119537664	; 0x7200000
 560:	73657200 	cmnvc	r5, #0, 4
 564:	65767265 	ldrbvs	r7, [r6, #-613]!	; 0x265
 568:	65720034 	ldrbvs	r0, [r2, #-52]!	; 0x34
 56c:	76726573 			; <UNDEFINED> instruction: 0x76726573
 570:	53003565 	movwpl	r3, #1381	; 0x565
 574:	5f504f54 	svcpl	0x00504f54
 578:	00474643 	subeq	r4, r7, r3, asr #12
 57c:	434f5047 	movtmi	r5, #61511	; 0xf047
 580:	4c534e4f 	mrrcmi	14, 4, r4, r3, cr15
 584:	72700050 	rsbsvc	r0, r0, #80	; 0x50
 588:	66746e69 	ldrbtvs	r6, [r4], -r9, ror #28
 58c:	7479625f 	ldrbtvc	r6, [r9], #-607	; 0x25f
 590:	50470065 	subpl	r0, r7, r5, rrx
 594:	4e4f4342 	cdpmi	3, 4, cr4, cr15, cr2, {2}
 598:	00504c53 	subseq	r4, r0, r3, asr ip
 59c:	5f43544d 	svcpl	0x0043544d
 5a0:	42415453 	submi	r5, r1, #1392508928	; 0x53000000
 5a4:	7500454c 	strvc	r4, [r0, #-1356]	; 0x54c
 5a8:	2e747261 	cdpcs	2, 7, cr7, cr4, cr1, {3}
 5ac:	50530063 	subspl	r0, r3, r3, rrx
 5b0:	004e4f43 	subeq	r4, lr, r3, asr #30
 5b4:	44524255 	ldrbmi	r4, [r2], #-597	; 0x255
 5b8:	47005649 	strmi	r5, [r0, -r9, asr #12]
 5bc:	4f435150 	svcmi	0x00435150
 5c0:	504c534e 	subpl	r5, ip, lr, asr #6
 5c4:	44504700 	ldrbmi	r4, [r0], #-1792	; 0x700
 5c8:	534e4f43 	movtpl	r4, #61251	; 0xef43
 5cc:	5500504c 	strpl	r5, [r0, #-76]	; 0x4c
 5d0:	4d544e49 	ldclmi	14, cr4, [r4, #-292]	; 0xfffffedc
 5d4:	49450030 	stmdbmi	r5, {r4, r5}^
 5d8:	3231544e 	eorscc	r5, r1, #1308622848	; 0x4e000000
 5dc:	4b53414d 	blmi	14d0b18 <R1_VE+0x4d0b18>
 5e0:	4a504700 	bmi	14121e8 <R1_VE+0x4121e8>
 5e4:	534e4f43 	movtpl	r4, #61251	; 0xef43
 5e8:	4700504c 	strmi	r5, [r0, -ip, asr #32]
 5ec:	55504250 	ldrbpl	r4, [r0, #-592]	; 0x250
 5f0:	50470044 	subpl	r0, r7, r4, asr #32
 5f4:	4455504b 	ldrbmi	r5, [r5], #-75	; 0x4b
 5f8:	47504700 	ldrbmi	r4, [r0, -r0, lsl #14]
 5fc:	00544144 	subseq	r4, r4, r4, asr #2
 600:	43465047 	movtmi	r5, #24647	; 0x6047
 604:	4c534e4f 	mrrcmi	14, 4, r4, r3, cr15
 608:	50470050 	subpl	r0, r7, r0, asr r0
 60c:	54414450 	strbpl	r4, [r1], #-1104	; 0x450
 610:	47504700 	ldrbmi	r4, [r0, -r0, lsl #14]
 614:	004e4f43 	subeq	r4, lr, r3, asr #30
 618:	50485047 	subpl	r5, r8, r7, asr #32
 61c:	4c534455 	cfldrdmi	mvd4, [r3], {85}	; 0x55
 620:	49450050 	stmdbmi	r5, {r4, r6}^
 624:	3231544e 	eorscc	r5, r1, #1308622848	; 0x4e000000
 628:	004e4f43 	subeq	r4, lr, r3, asr #30
 62c:	504a5047 	subpl	r5, sl, r7, asr #32
 630:	4c534455 	cfldrdmi	mvd4, [r3], {85}	; 0x55
 634:	50470050 	subpl	r0, r7, r0, asr r0
 638:	4e4f4348 	cdpmi	3, 4, cr4, cr15, cr8, {2}
 63c:	00504c53 	subseq	r4, r0, r3, asr ip
 640:	544e4955 	strbpl	r4, [lr], #-2389	; 0x955
 644:	00305053 	eorseq	r5, r0, r3, asr r0
 648:	314d454d 	cmpcc	sp, sp, asr #10
 64c:	43565244 	cmpmi	r6, #68, 4	; 0x40000004
 650:	75004e4f 	strvc	r4, [r0, #-3663]	; 0xe4f
 654:	74736166 	ldrbtvc	r6, [r3], #-358	; 0x166
 658:	7500745f 	strvc	r7, [r0, #-1119]	; 0x45f
 65c:	5f673631 	svcpl	0x00673631
 660:	74747665 	ldrbtvc	r7, [r4], #-1637	; 0x665
 664:	7261755f 	rsbvc	r7, r1, #398458880	; 0x17c00000
 668:	655f3174 	ldrbvs	r3, [pc, #-372]	; 4fc <apll_mdiv+0x3f2>
 66c:	726f7272 	rsbvc	r7, pc, #536870919	; 0x20000007
 670:	524f4e00 	subpl	r4, pc, #0, 28
 674:	5f4c414d 	svcpl	0x004c414d
 678:	00474643 	subeq	r4, r7, r3, asr #12
 67c:	746e6975 	strbtvc	r6, [lr], #-2421	; 0x975
 680:	745f3631 	ldrbvc	r3, [pc], #-1585	; 688 <apll_mdiv+0x57e>
 684:	4c504700 	mrrcmi	7, 0, r4, r0, cr0
 688:	304e4f43 	subcc	r4, lr, r3, asr #30
 68c:	4c504700 	mrrcmi	7, 0, r4, r0, cr0
 690:	314e4f43 	cmpcc	lr, r3, asr #30
 694:	4e495500 	cdpmi	5, 4, cr5, cr9, cr0, {0}
 698:	00305054 	eorseq	r5, r0, r4, asr r0
 69c:	4b4c4350 	blmi	13113e4 <R1_VE+0x3113e4>
 6a0:	5441475f 	strbpl	r4, [r1], #-1887	; 0x75f
 6a4:	49450045 	stmdbmi	r5, {r0, r2, r6}^
 6a8:	3433544e 	ldrtcc	r5, [r3], #-1102	; 0x44e
 6ac:	004e4f43 	subeq	r4, lr, r3, asr #30
 6b0:	544e4945 	strbpl	r4, [lr], #-2373	; 0x945
 6b4:	45503635 	ldrbmi	r3, [r0, #-1589]	; 0x635
 6b8:	4900444e 	stmdbmi	r0, {r1, r2, r3, r6, sl, lr}
 6bc:	524f464e 	subpl	r4, pc, #81788928	; 0x4e00000
 6c0:	4900304d 	stmdbmi	r0, {r0, r2, r3, r6, ip, sp}
 6c4:	524f464e 	subpl	r4, pc, #81788928	; 0x4e00000
 6c8:	4900314d 	stmdbmi	r0, {r0, r2, r3, r6, r8, ip, sp}
 6cc:	524f464e 	subpl	r4, pc, #81788928	; 0x4e00000
 6d0:	4900324d 	stmdbmi	r0, {r0, r2, r3, r6, r9, ip, sp}
 6d4:	524f464e 	subpl	r4, pc, #81788928	; 0x4e00000
 6d8:	4900334d 	stmdbmi	r0, {r0, r2, r3, r6, r8, r9, ip, sp}
 6dc:	524f464e 	subpl	r4, pc, #81788928	; 0x4e00000
 6e0:	4900344d 	stmdbmi	r0, {r0, r2, r3, r6, sl, ip, sp}
 6e4:	524f464e 	subpl	r4, pc, #81788928	; 0x4e00000
 6e8:	4900354d 	stmdbmi	r0, {r0, r2, r3, r6, r8, sl, ip, sp}
 6ec:	524f464e 	subpl	r4, pc, #81788928	; 0x4e00000
 6f0:	4900364d 	stmdbmi	r0, {r0, r2, r3, r6, r9, sl, ip, sp}
 6f4:	524f464e 	subpl	r4, pc, #81788928	; 0x4e00000
 6f8:	4700374d 	strmi	r3, [r0, -sp, asr #14]
 6fc:	55504150 	ldrbpl	r4, [r0, #-336]	; 0x150
 700:	50470044 	subpl	r0, r7, r4, asr #32
 704:	44555041 	ldrbmi	r5, [r5], #-65	; 0x41
 708:	00504c53 	subseq	r4, r0, r3, asr ip
 70c:	5f4b4c43 	svcpl	0x004b4c43
 710:	31564944 	cmpcc	r6, r4, asr #18
 714:	4b4c4300 	blmi	131131c <R1_VE+0x31131c>
 718:	5649445f 			; <UNDEFINED> instruction: 0x5649445f
 71c:	50470032 	subpl	r0, r7, r2, lsr r0
 720:	4e4f4348 	cdpmi	3, 4, cr4, cr15, cr8, {2}
 724:	50470031 	subpl	r0, r7, r1, lsr r0
 728:	4455504a 	ldrbmi	r5, [r5], #-74	; 0x4a
 72c:	46504700 	ldrbmi	r4, [r0], -r0, lsl #14
 730:	00544144 	subseq	r4, r4, r4, asr #2
 734:	304d454d 	subcc	r4, sp, sp, asr #10
 738:	534e4f43 	movtpl	r4, #61251	; 0xef43
 73c:	00504f54 	subseq	r4, r0, r4, asr pc
 740:	50505047 	subspl	r5, r0, r7, asr #32
 744:	4c534455 	cfldrdmi	mvd4, [r3], {85}	; 0x55
 748:	50470050 	subpl	r0, r7, r0, asr r0
 74c:	5441444f 	strbpl	r4, [r1], #-1103	; 0x44f
 750:	46504700 	ldrbmi	r4, [r0], -r0, lsl #14
 754:	004e4f43 	subeq	r4, lr, r3, asr #30
 758:	50435047 	subpl	r5, r3, r7, asr #32
 75c:	4c534455 	cfldrdmi	mvd4, [r3], {85}	; 0x55
 760:	49450050 	stmdbmi	r5, {r4, r6}^
 764:	4339544e 	teqmi	r9, #1308622848	; 0x4e000000
 768:	47004e4f 	strmi	r4, [r0, -pc, asr #28]
 76c:	4f434f50 	svcmi	0x00434f50
 770:	4945004e 	stmdbmi	r5, {r1, r2, r3, r6}^
 774:	3837544e 	ldmdacc	r7!, {r1, r2, r3, r6, sl, ip, lr}
 778:	004e4f43 	subeq	r4, lr, r3, asr #30
 77c:	5f535953 	svcpl	0x00535953
 780:	47004449 	strmi	r4, [r0, -r9, asr #8]
 784:	55504550 	ldrbpl	r4, [r0, #-1360]	; 0x550
 788:	504c5344 	subpl	r5, ip, r4, asr #6
 78c:	4d454d00 	stclmi	13, cr4, [r5, #-0]
 790:	4e4f4330 	mcrmi	3, 2, r4, cr15, cr0, {1}
 794:	31504c53 	cmpcc	r0, r3, asr ip
 798:	4d454d00 	stclmi	13, cr4, [r5, #-0]
 79c:	56524430 			; <UNDEFINED> instruction: 0x56524430
 7a0:	004e4f43 	subeq	r4, lr, r3, asr #30
 7a4:	414d4453 	cmpmi	sp, r3, asr r4
 7a8:	4c45535f 	mcrrmi	3, 5, r5, r5, cr15
 7ac:	52545500 	subspl	r5, r4, #0, 10
 7b0:	54415453 	strbpl	r5, [r1], #-1107	; 0x453
 7b4:	4e494500 	cdpmi	5, 4, cr4, cr9, cr0, {0}
 7b8:	4f433054 	svcmi	0x00433054
 7bc:	4500304e 	strmi	r3, [r0, #-78]	; 0x4e
 7c0:	30544e49 	subscc	r4, r4, r9, asr #28
 7c4:	314e4f43 	cmpcc	lr, r3, asr #30
 7c8:	4c504100 	ldfmie	f4, [r0], {-0}
 7cc:	4f435f4c 	svcmi	0x00435f4c
 7d0:	4150004e 	cmpmi	r0, lr, asr #32
 7d4:	45003044 	strmi	r3, [r0, #-68]	; 0x44
 7d8:	35544e49 	ldrbcc	r4, [r4, #-3657]	; 0xe49
 7dc:	53414d36 	movtpl	r4, #7478	; 0x1d36
 7e0:	4945004b 	stmdbmi	r5, {r0, r1, r3, r6}^
 7e4:	3433544e 	ldrtcc	r5, [r3], #-1102	; 0x44e
 7e8:	43544c46 	cmpmi	r4, #17920	; 0x4600
 7ec:	47004e4f 	strmi	r4, [r0, -pc, asr #28]
 7f0:	55504950 	ldrbpl	r4, [r0, #-2384]	; 0x950
 7f4:	50470044 	subpl	r0, r7, r4, asr #32
 7f8:	54414445 	strbpl	r4, [r1], #-1093	; 0x445
 7fc:	534d5500 	movtpl	r5, #54528	; 0xd500
 800:	00544154 	subseq	r4, r4, r4, asr r1
 804:	444e5047 	strbmi	r5, [lr], #-71	; 0x47
 808:	47005441 	strmi	r5, [r0, -r1, asr #8]
 80c:	4f434550 	svcmi	0x00434550
 810:	4945004e 	stmdbmi	r5, {r1, r2, r3, r6}^
 814:	5039544e 	eorspl	r5, r9, lr, asr #8
 818:	00444e45 	subeq	r4, r4, r5, asr #28
 81c:	4c4c5041 	mcrrmi	0, 4, r5, ip, cr1
 820:	434f4c5f 	movtmi	r4, #64607	; 0xfc5f
 824:	4841004b 	stmdami	r1, {r0, r1, r3, r6}^
 828:	4f435f42 	svcmi	0x00435f42
 82c:	7000314e 	andvc	r3, r0, lr, asr #2
 830:	70675f67 	rsbvc	r5, r7, r7, ror #30
 834:	725f6f69 	subsvc	r6, pc, #420	; 0x1a4
 838:	68006765 	stmdavs	r0, {r0, r2, r5, r6, r8, r9, sl, sp, lr}
 83c:	5f647261 	svcpl	0x00647261
 840:	5f676572 	svcpl	0x00676572
 844:	74726175 	ldrbtvc	r6, [r2], #-373	; 0x175
 848:	4d454d00 	stclmi	13, cr4, [r5, #-0]
 84c:	4e4f4331 	mcrmi	3, 2, r4, cr15, cr1, {1}
 850:	00504c53 	subseq	r4, r0, r3, asr ip
 854:	4e4f4355 	mcrmi	3, 2, r4, cr15, cr5, {2}
 858:	49445500 	stmdbmi	r4, {r8, sl, ip, lr}^
 85c:	4f4c5356 	svcmi	0x004c5356
 860:	47003054 	smlsdmi	r0, r4, r0, r3
 864:	4f434e50 	svcmi	0x00434e50
 868:	5046004e 	subpl	r0, r6, lr, asr #32
 86c:	54535f43 	ldrbpl	r5, [r3], #-3907	; 0xf43
 870:	454c4241 	strbmi	r4, [ip, #-577]	; 0x241
 874:	4b415700 	blmi	105647c <R1_VE+0x5647c>
 878:	5f505545 	svcpl	0x00505545
 87c:	54415453 	strbpl	r5, [r1], #-1107	; 0x453
 880:	5f575300 	svcpl	0x00575300
 884:	00545352 	subseq	r5, r4, r2, asr r3
 888:	544e4945 	strbpl	r4, [lr], #-2373	; 0x945
 88c:	414d3433 	cmpmi	sp, r3, lsr r4
 890:	45004b53 	strmi	r4, [r0, #-2899]	; 0xb53
 894:	5f4c4c50 	svcpl	0x004c4c50
 898:	314e4f43 	cmpcc	lr, r3, asr #30
 89c:	52575000 	subspl	r5, r7, #0
 8a0:	4746435f 	smlsldmi	r4, r6, pc, r3	; <UNPREDICTABLE>
 8a4:	42484100 	submi	r4, r8, #0, 2
 8a8:	4e4f435f 	mcrmi	3, 2, r4, cr15, cr15, {2}
 8ac:	49450030 	stmdbmi	r5, {r4, r5}^
 8b0:	4d30544e 	cfldrsmi	mvf5, [r0, #-312]!	; 0xfffffec8
 8b4:	004b5341 	subeq	r5, fp, r1, asr #6
 8b8:	5f424841 	svcpl	0x00424841
 8bc:	324e4f43 	subcc	r4, lr, #268	; 0x10c
 8c0:	43465500 	movtmi	r5, #25856	; 0x6500
 8c4:	47004e4f 	strmi	r4, [r0, -pc, asr #28]
 8c8:	55504850 	ldrbpl	r4, [r0, #-2128]	; 0x850
 8cc:	6f6d0044 	svcvs	0x006d0044
 8d0:	656c7564 	strbvs	r7, [ip, #-1380]!	; 0x564
 8d4:	696e695f 	stmdbvs	lr!, {r0, r1, r2, r3, r4, r6, r8, fp, sp, lr}^
 8d8:	61755f74 	cmnvs	r5, r4, ror pc
 8dc:	00307472 	eorseq	r7, r0, r2, ror r4
 8e0:	44445047 	strbmi	r5, [r4], #-71	; 0x47
 8e4:	47005441 	strmi	r5, [r0, -r1, asr #8]
 8e8:	55505150 	ldrbpl	r5, [r0, #-336]	; 0x150
 8ec:	4c430044 	mcrrmi	0, 4, r0, r3, cr4
 8f0:	52535f4b 	subspl	r5, r3, #300	; 0x12c
 8f4:	50470043 	subpl	r0, r7, r3, asr #32
 8f8:	5441444d 	strbpl	r4, [r1], #-1101	; 0x44d
 8fc:	44504700 	ldrbmi	r4, [r0], #-1792	; 0x700
 900:	004e4f43 	subeq	r4, lr, r3, asr #30
 904:	504c5047 	subpl	r5, ip, r7, asr #32
 908:	47004455 	smlsdmi	r0, r5, r4, r4
 90c:	4f434d50 	svcmi	0x00434d50
 910:	4945004e 	stmdbmi	r5, {r1, r2, r3, r6}^
 914:	3837544e 	ldmdacc	r7!, {r1, r2, r3, r6, sl, ip, lr}
 918:	43544c46 	cmpmi	r4, #17920	; 0x4600
 91c:	55004e4f 	strpl	r4, [r0, #-3663]	; 0xe4f
 920:	00485854 	subeq	r5, r8, r4, asr r8
 924:	544e4945 	strbpl	r4, [lr], #-2373	; 0x945
 928:	53414d39 	movtpl	r4, #7481	; 0x1d39
 92c:	5047004b 	subpl	r0, r7, fp, asr #32
 930:	4e4f434b 	cdpmi	3, 4, cr4, cr15, cr11, {2}
 934:	41500031 	cmpmi	r0, r1, lsr r0
 938:	00343144 	eorseq	r3, r4, r4, asr #2
 93c:	31444150 	cmpcc	r4, r0, asr r1
 940:	41500035 	cmpmi	r0, r5, lsr r0
 944:	00393144 	eorseq	r3, r9, r4, asr #2
 948:	54534655 	ldrbpl	r4, [r3], #-1621	; 0x655
 94c:	45005441 	strmi	r5, [r0, #-1089]	; 0x441
 950:	35544e49 	ldrbcc	r4, [r4, #-3657]	; 0xe49
 954:	4e4f4336 	mcrmi	3, 2, r4, cr15, cr6, {1}
 958:	4b504700 	blmi	1412560 <R1_VE+0x412560>
 95c:	304e4f43 	subcc	r4, lr, r3, asr #30
 960:	41504700 	cmpmi	r0, r0, lsl #14
 964:	534e4f43 	movtpl	r4, #61251	; 0xef43
 968:	7000504c 	andvc	r5, r0, ip, asr #32
 96c:	79735f67 	ldmdbvc	r3!, {r0, r1, r2, r5, r6, r8, r9, sl, fp, ip, lr}^
 970:	6e6f6373 	mcrvs	3, 3, r6, cr15, cr3, {3}
 974:	6765725f 			; <UNDEFINED> instruction: 0x6765725f
 978:	47504700 	ldrbmi	r4, [r0, -r0, lsl #14]
 97c:	00445550 	subeq	r5, r4, r0, asr r5
 980:	43505047 	cmpmi	r0, #71	; 0x47
 984:	4c534e4f 	mrrcmi	14, 4, r4, r3, cr15
 988:	53520050 	cmppl	r2, #80	; 0x50
 98c:	54535f54 	ldrbpl	r5, [r3], #-3924	; 0xf54
 990:	47005441 	strmi	r5, [r0, -r1, asr #8]
 994:	41444350 	cmpmi	r4, r0, asr r3
 998:	50470054 	subpl	r0, r7, r4, asr r0
 99c:	44555050 	ldrbmi	r5, [r5], #-80	; 0x50
 9a0:	4e494500 	cdpmi	5, 4, cr4, cr9, cr0, {0}
 9a4:	50323154 	eorspl	r3, r2, r4, asr r1
 9a8:	00444e45 	subeq	r4, r4, r5, asr #28
 9ac:	444c5047 	strbmi	r5, [ip], #-71	; 0x47
 9b0:	47005441 	strmi	r5, [r0, -r1, asr #8]
 9b4:	4f434350 	svcmi	0x00434350
 9b8:	534f004e 	movtpl	r0, #61518	; 0xf04e
 9bc:	54535f43 	ldrbpl	r5, [r3], #-3907	; 0xf43
 9c0:	454c4241 	strbmi	r4, [ip, #-577]	; 0x241
 9c4:	43504700 	cmpmi	r0, #0, 14
 9c8:	534e4f43 	movtpl	r4, #61251	; 0xef43
 9cc:	4700504c 	strmi	r5, [r0, -ip, asr #32]
 9d0:	55504750 	ldrbpl	r4, [r0, #-1872]	; 0x750
 9d4:	504c5344 	subpl	r5, ip, r4, asr #6
 9d8:	45504700 	ldrbmi	r4, [r0, #-1792]	; 0x700
 9dc:	534e4f43 	movtpl	r4, #61251	; 0xef43
 9e0:	4300504c 	movwmi	r5, #76	; 0x4c
 9e4:	4f5f4b4c 	svcmi	0x005f4b4c
 9e8:	47005455 	smlsdmi	r0, r5, r4, r5
 9ec:	4f435050 	svcmi	0x00435050
 9f0:	4c53004e 	mrrcmi	0, 4, r0, r3, cr14
 9f4:	5f504545 	svcpl	0x00504545
 9f8:	00474643 	subeq	r4, r7, r3, asr #12
 9fc:	544e4945 	strbpl	r4, [lr], #-2373	; 0x945
 a00:	544c4630 	strbpl	r4, [ip], #-1584	; 0x630
 a04:	304e4f43 	subcc	r4, lr, r3, asr #30
 a08:	4c504d00 	mrrcmi	13, 0, r4, r0, cr0
 a0c:	4f4c5f4c 	svcmi	0x004c5f4c
 a10:	45004b43 	strmi	r4, [r0, #-2883]	; 0xb43
 a14:	30544e49 	subscc	r4, r4, r9, asr #28
 a18:	43544c46 	cmpmi	r4, #17920	; 0x4600
 a1c:	00324e4f 	eorseq	r4, r2, pc, asr #28
 a20:	4b4c4353 	blmi	1311774 <R1_VE+0x311774>
 a24:	5441475f 	strbpl	r4, [r1], #-1887	; 0x75f
 a28:	50470045 	subpl	r0, r7, r5, asr #32
 a2c:	44555049 	ldrbmi	r5, [r5], #-73	; 0x49
 a30:	00504c53 	subseq	r4, r0, r3, asr ip
 a34:	43475047 	movtmi	r5, #28743	; 0x7047
 a38:	4c534e4f 	mrrcmi	14, 4, r4, r3, cr15
 a3c:	52500050 	subspl	r0, r0, #80	; 0x50
 a40:	49524f49 	ldmdbmi	r2, {r0, r3, r6, r8, r9, sl, fp, lr}^
 a44:	50005954 	andpl	r5, r0, r4, asr r9
 a48:	30314441 	eorscc	r4, r1, r1, asr #8
 a4c:	44415000 	strbmi	r5, [r1], #-0
 a50:	50003131 	andpl	r3, r0, r1, lsr r1
 a54:	32314441 	eorscc	r4, r1, #1090519040	; 0x41000000
 a58:	44415000 	strbmi	r5, [r1], #-0
 a5c:	47003331 	smladxmi	r0, r1, r3, r3
 a60:	4f434850 	svcmi	0x00434850
 a64:	4700304e 	strmi	r3, [r0, -lr, asr #32]
 a68:	55504650 	ldrbpl	r4, [r0, #-1616]	; 0x650
 a6c:	41500044 	cmpmi	r0, r4, asr #32
 a70:	00363144 	eorseq	r3, r6, r4, asr #2
 a74:	31444150 	cmpcc	r4, r0, asr r1
 a78:	41500037 	cmpmi	r0, r7, lsr r0
 a7c:	00383144 	eorseq	r3, r8, r4, asr #2
 a80:	44425047 	strbmi	r5, [r2], #-71	; 0x47
 a84:	47005441 	strmi	r5, [r0, -r1, asr #8]
 a88:	55504f50 	ldrbpl	r4, [r0, #-3920]	; 0xf50
 a8c:	50470044 	subpl	r0, r7, r4, asr #32
 a90:	5441444b 	strbpl	r4, [r1], #-1099	; 0x44b
 a94:	42504700 	subsmi	r4, r0, #0, 14
 a98:	004e4f43 	subeq	r4, lr, r3, asr #30
 a9c:	544e4945 	strbpl	r4, [lr], #-2373	; 0x945
 aa0:	544c4630 	strbpl	r4, [ip], #-1584	; 0x630
 aa4:	314e4f43 	cmpcc	lr, r3, asr #30
 aa8:	4e494500 	cdpmi	5, 4, cr4, cr9, cr0, {0}
 aac:	50343354 	eorspl	r3, r4, r4, asr r3
 ab0:	00444e45 	subeq	r4, r4, r5, asr #28
 ab4:	544e4945 	strbpl	r4, [lr], #-2373	; 0x945
 ab8:	544c4630 	strbpl	r4, [ip], #-1584	; 0x630
 abc:	334e4f43 	movtcc	r4, #61251	; 0xef43
 ac0:	4e494500 	cdpmi	5, 4, cr4, cr9, cr0, {0}
 ac4:	45503054 	ldrbmi	r3, [r0, #-84]	; 0x54
 ac8:	7200444e 	andvc	r4, r0, #1308622848	; 0x4e000000
 acc:	72657365 	rsbvc	r7, r5, #-1811939327	; 0x94000001
 ad0:	45006576 	strmi	r6, [r0, #-1398]	; 0x576
 ad4:	37544e49 	ldrbcc	r4, [r4, -r9, asr #28]
 ad8:	53414d38 	movtpl	r4, #7480	; 0x1d38
 adc:	4150004b 	cmpmi	r0, fp, asr #32
 ae0:	00383244 	eorseq	r3, r8, r4, asr #4
 ae4:	504f5047 	subpl	r5, pc, r7, asr #32
 ae8:	4c534455 	cfldrdmi	mvd4, [r3], {85}	; 0x55
 aec:	50470050 	subpl	r0, r7, r0, asr r0
 af0:	44555042 	ldrbmi	r5, [r5], #-66	; 0x42
 af4:	00504c53 	subseq	r4, r0, r3, asr ip
 af8:	32444150 	subcc	r4, r4, #80, 2
 afc:	69750034 	ldmdbvs	r5!, {r2, r4, r5}^
 b00:	5f38746e 	svcpl	0x0038746e
 b04:	41500074 	cmpmi	r0, r4, ror r0
 b08:	00353244 	eorseq	r3, r5, r4, asr #4
 b0c:	32444150 	subcc	r4, r4, #80, 2
 b10:	454d0036 	strbmi	r0, [sp, #-54]	; 0x36
 b14:	4f43304d 	svcmi	0x0043304d
 b18:	504c534e 	subpl	r5, ip, lr, asr #6
 b1c:	50470030 	subpl	r0, r7, r0, lsr r0
 b20:	44555051 	ldrbmi	r5, [r5], #-81	; 0x51
 b24:	00504c53 	subseq	r4, r0, r3, asr ip
 b28:	50445047 	subpl	r5, r4, r7, asr #32
 b2c:	4c534455 	cfldrdmi	mvd4, [r3], {85}	; 0x55
 b30:	41500050 	cmpmi	r0, r0, asr r0
 b34:	00393244 	eorseq	r3, r9, r4, asr #4
 b38:	32444150 	subcc	r4, r4, #80, 2
 b3c:	45530032 	ldrbmi	r0, [r3, #-50]	; 0x32
 b40:	43495652 	movtmi	r5, #38482	; 0x9652
 b44:	41500045 	cmpmi	r0, r5, asr #32
 b48:	00333244 	eorseq	r3, r3, r4, asr #4
 b4c:	32444150 	subcc	r4, r4, #80, 2
 b50:	50470037 	subpl	r0, r7, r7, lsr r0
 b54:	44555045 	ldrbmi	r5, [r5], #-69	; 0x45
 b58:	434c5500 	movtmi	r5, #50432	; 0xc500
 b5c:	68004e4f 	stmdavs	r0, {r0, r1, r2, r3, r6, r9, sl, fp, lr}
 b60:	5f647261 	svcpl	0x00647261
 b64:	5f676572 	svcpl	0x00676572
 b68:	6f697067 	svcvs	0x00697067
 b6c:	4e494500 	cdpmi	5, 4, cr4, cr9, cr0, {0}
 b70:	4c463954 	mcrrmi	9, 5, r3, r6, cr4
 b74:	4e4f4354 	mcrmi	3, 2, r4, cr15, cr4, {2}
 b78:	41504700 	cmpmi	r0, r0, lsl #14
 b7c:	00544144 	subseq	r4, r4, r4, asr #2
 b80:	504e5047 	subpl	r5, lr, r7, asr #32
 b84:	50004455 	andpl	r4, r0, r5, asr r4
 b88:	30324441 	eorscc	r4, r2, r1, asr #8
 b8c:	44415000 	strbmi	r5, [r1], #-0
 b90:	47003132 	smladxmi	r0, r2, r1, r3
 b94:	55504650 	ldrbpl	r4, [r0, #-1616]	; 0x650
 b98:	504c5344 	subpl	r5, ip, r4, asr #6
 b9c:	4a504700 	bmi	14127a4 <R1_VE+0x4127a4>
 ba0:	00544144 	subseq	r4, r4, r4, asr #2
 ba4:	43415047 	movtmi	r5, #4167	; 0x1047
 ba8:	50004e4f 	andpl	r4, r0, pc, asr #28
 bac:	00314441 	eorseq	r4, r1, r1, asr #8
 bb0:	32444150 	subcc	r4, r4, #80, 2
 bb4:	44415000 	strbmi	r5, [r1], #-0
 bb8:	41500033 	cmpmi	r0, r3, lsr r0
 bbc:	50003444 	andpl	r3, r0, r4, asr #8
 bc0:	00354441 	eorseq	r4, r5, r1, asr #8
 bc4:	36444150 			; <UNDEFINED> instruction: 0x36444150
 bc8:	44415000 	strbmi	r5, [r1], #-0
 bcc:	41500037 	cmpmi	r0, r7, lsr r0
 bd0:	50003844 	andpl	r3, r0, r4, asr #16
 bd4:	00394441 	eorseq	r4, r9, r1, asr #8
 bd8:	755f6770 	ldrbvc	r6, [pc, #-1904]	; 470 <apll_mdiv+0x366>
 bdc:	5f747261 	svcpl	0x00747261
 be0:	00676572 	rsbeq	r6, r7, r2, ror r5
 be4:	6e616373 	mcrvs	3, 3, r6, cr1, cr3, {3}
 be8:	7479625f 	ldrbtvc	r6, [r9], #-607	; 0x25f
 bec:	69660065 	stmdbvs	r6!, {r0, r2, r5, r6}^
 bf0:	725f6f66 	subsvc	r6, pc, #408	; 0x198
 bf4:	64006765 	strvs	r6, [r0], #-1893	; 0x765
 bf8:	725f7264 	subsvc	r7, pc, #100, 4	; 0x40000006
 bfc:	00646165 	rsbeq	r6, r4, r5, ror #2
 c00:	66756264 	ldrbtvs	r6, [r5], -r4, ror #4
 c04:	69616d00 	stmdbvs	r1!, {r8, sl, fp, sp, lr}^
 c08:	666f006e 	strbtvs	r0, [pc], -lr, rrx
 c0c:	74657366 	strbtvc	r7, [r5], #-870	; 0x366
 c10:	69616d00 	stmdbvs	r1!, {r8, sl, fp, sp, lr}^
 c14:	00632e6e 	rsbeq	r2, r3, lr, ror #28
 c18:	5f746567 	svcpl	0x00746567
 c1c:	6b636170 	blvs	18d91e4 <R1_VE+0x8d91e4>
 c20:	65007465 	strvs	r7, [r0, #-1125]	; 0x465
 c24:	726f7272 	rsbvc	r7, pc, #536870919	; 0x20000007
 c28:	65646f63 	strbvs	r6, [r4, #-3939]!	; 0xf63
 c2c:	72646400 	rsbvc	r6, r4, #0, 8
 c30:	6972775f 	ldmdbvs	r2!, {r0, r1, r2, r3, r4, r6, r8, r9, sl, ip, sp, lr}^
 c34:	Address 0x00000c34 is out of bounds.


Disassembly of section .debug_frame:

00000000 <.debug_frame>:
   0:	0000000c 	andeq	r0, r0, ip
   4:	ffffffff 			; <UNDEFINED> instruction: 0xffffffff
   8:	7c020001 	stcvc	0, cr0, [r2], {1}
   c:	000d0c0e 	andeq	r0, sp, lr, lsl #24
  10:	0000000c 	andeq	r0, r0, ip
  14:	00000000 	andeq	r0, r0, r0
  18:	0c0002dc 	sfmeq	f0, 4, [r0], {220}	; 0xdc
  1c:	00000020 	andeq	r0, r0, r0, lsr #32
  20:	00000018 	andeq	r0, r0, r8, lsl r0
  24:	00000000 	andeq	r0, r0, r0
  28:	0c0002fc 	sfmeq	f0, 4, [r0], {252}	; 0xfc
  2c:	000000e8 	andeq	r0, r0, r8, ror #1
  30:	84100e42 	ldrhi	r0, [r0], #-3650	; 0xe42
  34:	86038504 	strhi	r8, [r3], -r4, lsl #10
  38:	00018702 	andeq	r8, r1, r2, lsl #14
  3c:	0000000c 	andeq	r0, r0, ip
  40:	ffffffff 			; <UNDEFINED> instruction: 0xffffffff
  44:	7c020001 	stcvc	0, cr0, [r2], {1}
  48:	000d0c0e 	andeq	r0, sp, lr, lsl #24
  4c:	0000000c 	andeq	r0, r0, ip
  50:	0000003c 	andeq	r0, r0, ip, lsr r0
  54:	0c0003e4 	stceq	3, cr0, [r0], {228}	; 0xe4
  58:	00000018 	andeq	r0, r0, r8, lsl r0
  5c:	0000000c 	andeq	r0, r0, ip
  60:	0000003c 	andeq	r0, r0, ip, lsr r0
  64:	0c0003fc 	stceq	3, cr0, [r0], {252}	; 0xfc
  68:	00000018 	andeq	r0, r0, r8, lsl r0
  6c:	0000000c 	andeq	r0, r0, ip
  70:	0000003c 	andeq	r0, r0, ip, lsr r0
  74:	0c000414 	cfstrseq	mvf0, [r0], {20}
  78:	00000010 	andeq	r0, r0, r0, lsl r0
  7c:	00000014 	andeq	r0, r0, r4, lsl r0
  80:	0000003c 	andeq	r0, r0, ip, lsr r0
  84:	0c000424 	cfstrseq	mvf0, [r0], {36}	; 0x24
  88:	00000048 	andeq	r0, r0, r8, asr #32
  8c:	84040e4a 	strhi	r0, [r4], #-3658	; 0xe4a
  90:	00000001 	andeq	r0, r0, r1
  94:	0000000c 	andeq	r0, r0, ip
  98:	0000003c 	andeq	r0, r0, ip, lsr r0
  9c:	0c00046c 	cfstrseq	mvf0, [r0], {108}	; 0x6c
  a0:	00000018 	andeq	r0, r0, r8, lsl r0
  a4:	0000000c 	andeq	r0, r0, ip
  a8:	0000003c 	andeq	r0, r0, ip, lsr r0
  ac:	0c000484 	cfstrseq	mvf0, [r0], {132}	; 0x84
  b0:	00000040 	andeq	r0, r0, r0, asr #32
  b4:	0000000c 	andeq	r0, r0, ip
  b8:	0000003c 	andeq	r0, r0, ip, lsr r0
  bc:	0c0004c4 	cfstrseq	mvf0, [r0], {196}	; 0xc4
  c0:	00000034 	andeq	r0, r0, r4, lsr r0
  c4:	00000014 	andeq	r0, r0, r4, lsl r0
  c8:	0000003c 	andeq	r0, r0, ip, lsr r0
  cc:	0c0004f8 	cfstrseq	mvf0, [r0], {248}	; 0xf8
  d0:	000000e4 	andeq	r0, r0, r4, ror #1
  d4:	84040e44 	strhi	r0, [r4], #-3652	; 0xe44
  d8:	00000001 	andeq	r0, r0, r1
  dc:	00000020 	andeq	r0, r0, r0, lsr #32
  e0:	0000003c 	andeq	r0, r0, ip, lsr r0
  e4:	0c0005dc 	cfstr32eq	mvfx0, [r0], {220}	; 0xdc
  e8:	0000009c 	muleq	r0, ip, r0
  ec:	83200e42 	teqhi	r0, #1056	; 0x420
  f0:	85078408 	strhi	r8, [r7, #-1032]	; 0x408
  f4:	87058606 	strhi	r8, [r5, -r6, lsl #12]
  f8:	8a038804 	bhi	e2110 <SVC_stack_size+0xd2110>
  fc:	00018e02 	andeq	r8, r1, r2, lsl #28
 100:	0000000c 	andeq	r0, r0, ip
 104:	0000003c 	andeq	r0, r0, ip, lsr r0
 108:	0c000678 	stceq	6, cr0, [r0], {120}	; 0x78
 10c:	00000004 	andeq	r0, r0, r4
 110:	00000014 	andeq	r0, r0, r4, lsl r0
 114:	0000003c 	andeq	r0, r0, ip, lsr r0
 118:	0c00067c 	stceq	6, cr0, [r0], {124}	; 0x7c
 11c:	00000070 	andeq	r0, r0, r0, ror r0
 120:	84080e4a 	strhi	r0, [r8], #-3658	; 0xe4a
 124:	00018e02 	andeq	r8, r1, r2, lsl #28
 128:	00000024 	andeq	r0, r0, r4, lsr #32
 12c:	0000003c 	andeq	r0, r0, ip, lsr r0
 130:	0c0006ec 	stceq	6, cr0, [r0], {236}	; 0xec
 134:	000000cc 	andeq	r0, r0, ip, asr #1
 138:	83280e42 	teqhi	r8, #1056	; 0x420
 13c:	8509840a 	strhi	r8, [r9, #-1034]	; 0x40a
 140:	87078608 	strhi	r8, [r7, -r8, lsl #12]
 144:	89058806 	stmdbhi	r5, {r1, r2, fp, pc}
 148:	8b038a04 	blhi	e2960 <SVC_stack_size+0xd2960>
 14c:	00018e02 	andeq	r8, r1, r2, lsl #28
 150:	00000018 	andeq	r0, r0, r8, lsl r0
 154:	0000003c 	andeq	r0, r0, ip, lsr r0
 158:	0c0007b8 	stceq	7, cr0, [r0], {184}	; 0xb8
 15c:	00000054 	andeq	r0, r0, r4, asr r0
 160:	84100e42 	ldrhi	r0, [r0], #-3650	; 0xe42
 164:	86038504 	strhi	r8, [r3], -r4, lsl #10
 168:	00018e02 	andeq	r8, r1, r2, lsl #28
 16c:	0000001c 	andeq	r0, r0, ip, lsl r0
 170:	0000003c 	andeq	r0, r0, ip, lsr r0
 174:	0c00080c 	stceq	8, cr0, [r0], {12}
 178:	00000054 	andeq	r0, r0, r4, asr r0
 17c:	83180e42 	tsthi	r8, #1056	; 0x420
 180:	85058406 	strhi	r8, [r5, #-1030]	; 0x406
 184:	87038604 	strhi	r8, [r3, -r4, lsl #12]
 188:	00018e02 	andeq	r8, r1, r2, lsl #28
 18c:	0000000c 	andeq	r0, r0, ip
 190:	0000003c 	andeq	r0, r0, ip, lsr r0
 194:	0c000860 	stceq	8, cr0, [r0], {96}	; 0x60
 198:	0000002c 	andeq	r0, r0, ip, lsr #32
 19c:	0000000c 	andeq	r0, r0, ip
 1a0:	ffffffff 			; <UNDEFINED> instruction: 0xffffffff
 1a4:	7c020001 	stcvc	0, cr0, [r2], {1}
 1a8:	000d0c0e 	andeq	r0, sp, lr, lsl #24
 1ac:	0000000c 	andeq	r0, r0, ip
 1b0:	0000019c 	muleq	r0, ip, r1
 1b4:	0c00088c 	stceq	8, cr0, [r0], {140}	; 0x8c
 1b8:	00000020 	andeq	r0, r0, r0, lsr #32
 1bc:	0000000c 	andeq	r0, r0, ip
 1c0:	0000019c 	muleq	r0, ip, r1
 1c4:	0c0008ac 	stceq	8, cr0, [r0], {172}	; 0xac
 1c8:	00000028 	andeq	r0, r0, r8, lsr #32
 1cc:	0000000c 	andeq	r0, r0, ip
 1d0:	0000019c 	muleq	r0, ip, r1
 1d4:	0c0008d4 	stceq	8, cr0, [r0], {212}	; 0xd4
 1d8:	00000028 	andeq	r0, r0, r8, lsr #32
 1dc:	0000000c 	andeq	r0, r0, ip
 1e0:	0000019c 	muleq	r0, ip, r1
 1e4:	0c0008fc 	stceq	8, cr0, [r0], {252}	; 0xfc
 1e8:	00000040 	andeq	r0, r0, r0, asr #32
 1ec:	0000000c 	andeq	r0, r0, ip
 1f0:	0000019c 	muleq	r0, ip, r1
 1f4:	0c00093c 	stceq	9, cr0, [r0], {60}	; 0x3c
 1f8:	000000cc 	andeq	r0, r0, ip, asr #1
 1fc:	0000000c 	andeq	r0, r0, ip
 200:	ffffffff 			; <UNDEFINED> instruction: 0xffffffff
 204:	7c020001 	stcvc	0, cr0, [r2], {1}
 208:	000d0c0e 	andeq	r0, sp, lr, lsl #24
 20c:	00000018 	andeq	r0, r0, r8, lsl r0
 210:	000001fc 	strdeq	r0, [r0], -ip
 214:	0c000a08 	stceq	10, cr0, [r0], {8}
 218:	00000094 	muleq	r0, r4, r0
 21c:	840c0e42 	strhi	r0, [ip], #-3650	; 0xe42
 220:	8e028503 	cfsh32hi	mvfx8, mvfx2, #3
 224:	180e4401 	stmdane	lr, {r0, sl, lr}
 228:	00000014 	andeq	r0, r0, r4, lsl r0
 22c:	000001fc 	strdeq	r0, [r0], -ip
 230:	0c000a9c 	stceq	10, cr0, [r0], {156}	; 0x9c
 234:	000000d4 	ldrdeq	r0, [r0], -r4
 238:	83080e42 	movwhi	r0, #36418	; 0x8e42
 23c:	00018e02 	andeq	r8, r1, r2, lsl #28

Disassembly of section .debug_ranges:

00000000 <.debug_ranges>:
   0:	000000a0 	andeq	r0, r0, r0, lsr #1
   4:	000000a8 	andeq	r0, r0, r8, lsr #1
   8:	000000ac 	andeq	r0, r0, ip, lsr #1
   c:	000000b4 	strheq	r0, [r0], -r4
	...
  18:	000000a8 	andeq	r0, r0, r8, lsr #1
  1c:	000000ac 	andeq	r0, r0, ip, lsr #1
  20:	000000bc 	strheq	r0, [r0], -ip
  24:	000000cc 	andeq	r0, r0, ip, asr #1
	...
  30:	000000f8 	strdeq	r0, [r0], -r8
  34:	000000fc 	strdeq	r0, [r0], -ip
  38:	000000fc 	strdeq	r0, [r0], -ip
  3c:	00000100 	andeq	r0, r0, r0, lsl #2
	...
  48:	00000100 	andeq	r0, r0, r0, lsl #2
  4c:	00000104 	andeq	r0, r0, r4, lsl #2
  50:	00000104 	andeq	r0, r0, r4, lsl #2
  54:	00000114 	andeq	r0, r0, r4, lsl r1
	...
  60:	00000160 	andeq	r0, r0, r0, ror #2
  64:	00000164 	andeq	r0, r0, r4, ror #2
  68:	000001b0 			; <UNDEFINED> instruction: 0x000001b0
  6c:	000001e0 	andeq	r0, r0, r0, ror #3
	...
  78:	00000160 	andeq	r0, r0, r0, ror #2
  7c:	00000164 	andeq	r0, r0, r4, ror #2
  80:	000001c4 	andeq	r0, r0, r4, asr #3
  84:	000001d4 	ldrdeq	r0, [r0], -r4
	...
  90:	000001fc 	strdeq	r0, [r0], -ip
  94:	00000200 	andeq	r0, r0, r0, lsl #4
  98:	00000204 	andeq	r0, r0, r4, lsl #4
  9c:	00000208 	andeq	r0, r0, r8, lsl #4
  a0:	0000020c 	andeq	r0, r0, ip, lsl #4
  a4:	00000214 	andeq	r0, r0, r4, lsl r2
	...
  b0:	00000220 	andeq	r0, r0, r0, lsr #4
  b4:	00000224 	andeq	r0, r0, r4, lsr #4
  b8:	0000022c 	andeq	r0, r0, ip, lsr #4
  bc:	00000230 	andeq	r0, r0, r0, lsr r2
	...
  c8:	00000224 	andeq	r0, r0, r4, lsr #4
  cc:	00000228 	andeq	r0, r0, r8, lsr #4
  d0:	00000234 	andeq	r0, r0, r4, lsr r2
  d4:	00000238 	andeq	r0, r0, r8, lsr r2
	...
  e0:	00000278 	andeq	r0, r0, r8, ror r2
  e4:	0000027c 	andeq	r0, r0, ip, ror r2
  e8:	00000280 	andeq	r0, r0, r0, lsl #5
  ec:	0000028c 	andeq	r0, r0, ip, lsl #5
	...
  f8:	00000298 	muleq	r0, r8, r2
  fc:	0000029c 	muleq	r0, ip, r2
 100:	000002a0 	andeq	r0, r0, r0, lsr #5
 104:	000002a4 	andeq	r0, r0, r4, lsr #5
 108:	000002ac 	andeq	r0, r0, ip, lsr #5
 10c:	000002b0 			; <UNDEFINED> instruction: 0x000002b0
 110:	000002bc 			; <UNDEFINED> instruction: 0x000002bc
 114:	000002c0 	andeq	r0, r0, r0, asr #5
	...
 120:	000002b8 			; <UNDEFINED> instruction: 0x000002b8
 124:	000002bc 			; <UNDEFINED> instruction: 0x000002bc
 128:	000002c4 	andeq	r0, r0, r4, asr #5
 12c:	000002c8 	andeq	r0, r0, r8, asr #5
	...
 138:	000002d0 	ldrdeq	r0, [r0], -r0	; <UNPREDICTABLE>
 13c:	000002d4 	ldrdeq	r0, [r0], -r4
 140:	000002dc 	ldrdeq	r0, [r0], -ip
 144:	000002e0 	andeq	r0, r0, r0, ror #5
	...
 150:	000002d8 	ldrdeq	r0, [r0], -r8
 154:	000002dc 	ldrdeq	r0, [r0], -ip
 158:	000002e0 	andeq	r0, r0, r0, ror #5
 15c:	000002f0 	strdeq	r0, [r0], -r0	; <UNPREDICTABLE>
	...
 168:	0000030c 	andeq	r0, r0, ip, lsl #6
 16c:	00000310 	andeq	r0, r0, r0, lsl r3
 170:	00000314 	andeq	r0, r0, r4, lsl r3
 174:	00000318 	andeq	r0, r0, r8, lsl r3
 178:	0000031c 	andeq	r0, r0, ip, lsl r3
 17c:	00000320 	andeq	r0, r0, r0, lsr #6
 180:	00000328 	andeq	r0, r0, r8, lsr #6
 184:	0000032c 	andeq	r0, r0, ip, lsr #6
	...
 190:	0000033c 	andeq	r0, r0, ip, lsr r3
 194:	00000340 	andeq	r0, r0, r0, asr #6
 198:	00000344 	andeq	r0, r0, r4, asr #6
 19c:	00000348 	andeq	r0, r0, r8, asr #6
	...
 1a8:	0c000a08 	stceq	10, cr0, [r0], {8}
 1ac:	0c000a9c 	stceq	10, cr0, [r0], {156}	; 0x9c
 1b0:	0c000a9c 	stceq	10, cr0, [r0], {156}	; 0x9c
 1b4:	0c000b70 	stceq	11, cr0, [r0], {112}	; 0x70
	...
