
boot_rom.elf:     file format elf32-littlearm


Disassembly of section .text:

0c000000 <_start>:
 c000000:	e10f0000 	mrs	r0, CPSR
 c000004:	e3c0001f 	bic	r0, r0, #31
 c000008:	e38010d3 	orr	r1, r0, #211	; 0xd3
 c00000c:	e12ff001 	msr	CPSR_fsxc, r1
 c000010:	e59fd258 	ldr	sp, [pc, #600]	; c000270 <loopnommu1+0x40>
 c000014:	e3a00000 	mov	r0, #0
 c000018:	ee070f17 	mcr	15, 0, r0, cr7, cr7, {0}
 c00001c:	ee110f10 	mrc	15, 0, r0, cr1, cr0, {0}
 c000020:	e3800a01 	orr	r0, r0, #4096	; 0x1000
 c000024:	ee010f10 	mcr	15, 0, r0, cr1, cr0, {0}
 c000028:	e59f0244 	ldr	r0, [pc, #580]	; c000274 <loopnommu1+0x44>
 c00002c:	ee0f0f92 	mcr	15, 0, r0, cr15, cr2, {4}
 c000030:	e59f0240 	ldr	r0, [pc, #576]	; c000278 <loopnommu1+0x48>
 c000034:	e3e01000 	mvn	r1, #0
 c000038:	e5801000 	str	r1, [r0]
 c00003c:	e59f0234 	ldr	r0, [pc, #564]	; c000278 <loopnommu1+0x48>
 c000040:	e3e01000 	mvn	r1, #0
 c000044:	e5801000 	str	r1, [r0]
 c000048:	e59f022c 	ldr	r0, [pc, #556]	; c00027c <loopnommu1+0x4c>
 c00004c:	e3a01000 	mov	r1, #0
 c000050:	e5801000 	str	r1, [r0]
 c000054:	e59f0224 	ldr	r0, [pc, #548]	; c000280 <loopnommu1+0x50>
 c000058:	e5901000 	ldr	r1, [r0]
 c00005c:	e3811040 	orr	r1, r1, #64	; 0x40
 c000060:	e5801000 	str	r1, [r0]
 c000064:	e320f000 	nop	{0}
 c000068:	e320f000 	nop	{0}
 c00006c:	e320f000 	nop	{0}
 c000070:	e320f000 	nop	{0}
 c000074:	e320f000 	nop	{0}
 c000078:	e5901000 	ldr	r1, [r0]
 c00007c:	e3811080 	orr	r1, r1, #128	; 0x80
 c000080:	e5801000 	str	r1, [r0]

0c000084 <WaitForSync>:
 c000084:	e5901000 	ldr	r1, [r0]
 c000088:	e2011c0f 	and	r1, r1, #3840	; 0xf00
 c00008c:	e3510c0f 	cmp	r1, #3840	; 0xf00
 c000090:	1afffffb 	bne	c000084 <WaitForSync>
 c000094:	e59f31e8 	ldr	r3, [pc, #488]	; c000284 <loopnommu1+0x54>
 c000098:	e59f41e8 	ldr	r4, [pc, #488]	; c000288 <loopnommu1+0x58>
 c00009c:	e59f51e8 	ldr	r5, [pc, #488]	; c00028c <loopnommu1+0x5c>
 c0000a0:	e59f61e8 	ldr	r6, [pc, #488]	; c000290 <loopnommu1+0x60>
 c0000a4:	e59f01e8 	ldr	r0, [pc, #488]	; c000294 <loopnommu1+0x64>
 c0000a8:	e5901000 	ldr	r1, [r0]
 c0000ac:	e0011003 	and	r1, r1, r3
 c0000b0:	e59f21e0 	ldr	r2, [pc, #480]	; c000298 <loopnommu1+0x68>
 c0000b4:	e1510002 	cmp	r1, r2
 c0000b8:	1a000018 	bne	c000120 <PLL_NeedToConfigure>
 c0000bc:	e59f01d8 	ldr	r0, [pc, #472]	; c00029c <loopnommu1+0x6c>
 c0000c0:	e5901000 	ldr	r1, [r0]
 c0000c4:	e0011003 	and	r1, r1, r3
 c0000c8:	e59f21d0 	ldr	r2, [pc, #464]	; c0002a0 <loopnommu1+0x70>
 c0000cc:	e1510002 	cmp	r1, r2
 c0000d0:	1a000012 	bne	c000120 <PLL_NeedToConfigure>
 c0000d4:	e59f01c8 	ldr	r0, [pc, #456]	; c0002a4 <loopnommu1+0x74>
 c0000d8:	e5901000 	ldr	r1, [r0]
 c0000dc:	e0011004 	and	r1, r1, r4
 c0000e0:	e59f21c0 	ldr	r2, [pc, #448]	; c0002a8 <loopnommu1+0x78>
 c0000e4:	e1510002 	cmp	r1, r2
 c0000e8:	1a00000c 	bne	c000120 <PLL_NeedToConfigure>
 c0000ec:	e59f01b8 	ldr	r0, [pc, #440]	; c0002ac <loopnommu1+0x7c>
 c0000f0:	e5901000 	ldr	r1, [r0]
 c0000f4:	e0011005 	and	r1, r1, r5
 c0000f8:	e3a02000 	mov	r2, #0
 c0000fc:	e1510002 	cmp	r1, r2
 c000100:	1a000006 	bne	c000120 <PLL_NeedToConfigure>
 c000104:	e59f01a4 	ldr	r0, [pc, #420]	; c0002b0 <loopnommu1+0x80>
 c000108:	e5901000 	ldr	r1, [r0]
 c00010c:	e0011006 	and	r1, r1, r6
 c000110:	e59f219c 	ldr	r2, [pc, #412]	; c0002b4 <loopnommu1+0x84>
 c000114:	e1510002 	cmp	r1, r2
 c000118:	1a00001d 	bne	c000194 <CLKDIV_NeedToConfigure>
 c00011c:	ea000028 	b	c0001c4 <PLL_CLKDIV_AlreadyConfigured>

0c000120 <PLL_NeedToConfigure>:
 c000120:	e59f0190 	ldr	r0, [pc, #400]	; c0002b8 <loopnommu1+0x88>
 c000124:	e5901000 	ldr	r1, [r0]
 c000128:	e3c11007 	bic	r1, r1, #7
 c00012c:	e5801000 	str	r1, [r0]
 c000130:	e59f0178 	ldr	r0, [pc, #376]	; c0002b0 <loopnommu1+0x80>
 c000134:	e5901000 	ldr	r1, [r0]
 c000138:	e3c11cff 	bic	r1, r1, #65280	; 0xff00
 c00013c:	e3c110ff 	bic	r1, r1, #255	; 0xff
 c000140:	e59f216c 	ldr	r2, [pc, #364]	; c0002b4 <loopnommu1+0x84>
 c000144:	e1811002 	orr	r1, r1, r2
 c000148:	e5801000 	str	r1, [r0]
 c00014c:	e59f1168 	ldr	r1, [pc, #360]	; c0002bc <loopnommu1+0x8c>
 c000150:	e59f2168 	ldr	r2, [pc, #360]	; c0002c0 <loopnommu1+0x90>
 c000154:	e59f0168 	ldr	r0, [pc, #360]	; c0002c4 <loopnommu1+0x94>
 c000158:	e5801000 	str	r1, [r0]
 c00015c:	e5801004 	str	r1, [r0, #4]
 c000160:	e5802008 	str	r2, [r0, #8]
 c000164:	e59f0128 	ldr	r0, [pc, #296]	; c000294 <loopnommu1+0x64>
 c000168:	e59f1128 	ldr	r1, [pc, #296]	; c000298 <loopnommu1+0x68>
 c00016c:	e5801000 	str	r1, [r0]
 c000170:	e59f0124 	ldr	r0, [pc, #292]	; c00029c <loopnommu1+0x6c>
 c000174:	e59f1124 	ldr	r1, [pc, #292]	; c0002a0 <loopnommu1+0x70>
 c000178:	e5801000 	str	r1, [r0]
 c00017c:	e59f0128 	ldr	r0, [pc, #296]	; c0002ac <loopnommu1+0x7c>
 c000180:	e3a01000 	mov	r1, #0
 c000184:	e5801000 	str	r1, [r0]
 c000188:	e59f0114 	ldr	r0, [pc, #276]	; c0002a4 <loopnommu1+0x74>
 c00018c:	e59f1114 	ldr	r1, [pc, #276]	; c0002a8 <loopnommu1+0x78>
 c000190:	e5801000 	str	r1, [r0]

0c000194 <CLKDIV_NeedToConfigure>:
 c000194:	e59f0114 	ldr	r0, [pc, #276]	; c0002b0 <loopnommu1+0x80>
 c000198:	e5901000 	ldr	r1, [r0]
 c00019c:	e3c11803 	bic	r1, r1, #196608	; 0x30000
 c0001a0:	e3c11cff 	bic	r1, r1, #65280	; 0xff00
 c0001a4:	e3c110ff 	bic	r1, r1, #255	; 0xff
 c0001a8:	e59f2104 	ldr	r2, [pc, #260]	; c0002b4 <loopnommu1+0x84>
 c0001ac:	e1811002 	orr	r1, r1, r2
 c0001b0:	e5801000 	str	r1, [r0]
 c0001b4:	e59f00fc 	ldr	r0, [pc, #252]	; c0002b8 <loopnommu1+0x88>
 c0001b8:	e5901000 	ldr	r1, [r0]
 c0001bc:	e3811007 	orr	r1, r1, #7
 c0001c0:	e5801000 	str	r1, [r0]

0c0001c4 <PLL_CLKDIV_AlreadyConfigured>:
 c0001c4:	eb00004c 	bl	c0002fc <dram_init>
 c0001c8:	eb0000ca 	bl	c0004f8 <nand_init>
 c0001cc:	e59f00f4 	ldr	r0, [pc, #244]	; c0002c8 <loopnommu1+0x98>
 c0001d0:	e5901000 	ldr	r1, [r0]
 c0001d4:	e3811a01 	orr	r1, r1, #4096	; 0x1000
 c0001d8:	e3c110bf 	bic	r1, r1, #191	; 0xbf
 c0001dc:	e5801000 	str	r1, [r0]
 c0001e0:	ee110f10 	mrc	15, 0, r0, cr1, cr0, {0}
 c0001e4:	e3c00401 	bic	r0, r0, #16777216	; 0x1000000
 c0001e8:	ee010f10 	mcr	15, 0, r0, cr1, cr0, {0}
 c0001ec:	e3a00205 	mov	r0, #1342177280	; 0x50000000
 c0001f0:	e3a01000 	mov	r1, #0
 c0001f4:	e59f30d0 	ldr	r3, [pc, #208]	; c0002cc <loopnommu1+0x9c>

0c0001f8 <loopnommu>:
 c0001f8:	e1a02a01 	lsl	r2, r1, #20
 c0001fc:	e0822003 	add	r2, r2, r3
 c000200:	e4802004 	str	r2, [r0], #4
 c000204:	e2811001 	add	r1, r1, #1
 c000208:	e3510c05 	cmp	r1, #1280	; 0x500
 c00020c:	1afffff9 	bne	c0001f8 <loopnommu>
 c000210:	e59f30b8 	ldr	r3, [pc, #184]	; c0002d0 <loopnommu1+0xa0>

0c000214 <loopmmu>:
 c000214:	e1a02a01 	lsl	r2, r1, #20
 c000218:	e0822003 	add	r2, r2, r3
 c00021c:	e4802004 	str	r2, [r0], #4
 c000220:	e2811001 	add	r1, r1, #1
 c000224:	e3510d16 	cmp	r1, #1408	; 0x580
 c000228:	1afffff9 	bne	c000214 <loopmmu>
 c00022c:	e59f3098 	ldr	r3, [pc, #152]	; c0002cc <loopnommu1+0x9c>

0c000230 <loopnommu1>:
 c000230:	e1a02a01 	lsl	r2, r1, #20
 c000234:	e0822003 	add	r2, r2, r3
 c000238:	e4802004 	str	r2, [r0], #4
 c00023c:	e2811001 	add	r1, r1, #1
 c000240:	e3510a01 	cmp	r1, #4096	; 0x1000
 c000244:	1afffff9 	bne	c000230 <loopnommu1>
 c000248:	e3a00205 	mov	r0, #1342177280	; 0x50000000
 c00024c:	ee020f10 	mcr	15, 0, r0, cr2, cr0, {0}
 c000250:	e3e00000 	mvn	r0, #0
 c000254:	ee030f10 	mcr	15, 0, r0, cr3, cr0, {0}
 c000258:	e59f0074 	ldr	r0, [pc, #116]	; c0002d4 <loopnommu1+0xa4>
 c00025c:	e59f1074 	ldr	r1, [pc, #116]	; c0002d8 <loopnommu1+0xa8>
 c000260:	e5801000 	str	r1, [r0]
 c000264:	eb00020c 	bl	c000a9c <main>
 c000268:	e3a00201 	mov	r0, #268435456	; 0x10000000
 c00026c:	e1a0f000 	mov	pc, r0
 c000270:	0c002000 	stceq	0, cr2, [r0], {-0}
 c000274:	70000013 	andvc	r0, r0, r3, lsl r0
 c000278:	71200014 	teqvc	r0, r4, lsl r0
 c00027c:	7e004000 	cdpvc	0, 0, cr4, cr0, cr0, {0}
 c000280:	7e00f900 	cdpvc	9, 0, cr15, cr0, cr0, {0}
 c000284:	83ff3f07 	mvnshi	r3, #7, 30
 c000288:	80ff3f07 	rscshi	r3, pc, r7, lsl #30
 c00028c:	0000ffff 	strdeq	pc, [r0], -pc	; <UNPREDICTABLE>
 c000290:	0003ff17 	andeq	pc, r3, r7, lsl pc	; <UNPREDICTABLE>
 c000294:	7e00f00c 	cdpvc	0, 0, cr15, cr0, cr12, {0}
 c000298:	810a0301 	tsthi	sl, r1, lsl #6
 c00029c:	7e00f010 	mcrvc	0, 0, pc, cr0, cr0, {0}	; <UNPREDICTABLE>
 c0002a0:	810a0302 	tsthi	sl, r2, lsl #6
 c0002a4:	7e00f014 	mcrvc	0, 0, pc, cr0, cr4, {0}	; <UNPREDICTABLE>
 c0002a8:	80fe0902 	rscshi	r0, lr, r2, lsl #18
 c0002ac:	7e00f018 	mcrvc	0, 0, pc, cr0, cr8, {0}	; <UNPREDICTABLE>
 c0002b0:	7e00f020 	cdpvc	0, 0, cr15, cr0, cr0, {1}
 c0002b4:	00003310 	andeq	r3, r0, r0, lsl r3
 c0002b8:	7e00f01c 	mcrvc	0, 0, pc, cr0, cr12, {0}	; <UNPREDICTABLE>
 c0002bc:	000004b1 			; <UNDEFINED> instruction: 0x000004b1
 c0002c0:	00000e13 	andeq	r0, r0, r3, lsl lr
 c0002c4:	7e00f000 	cdpvc	0, 0, cr15, cr0, cr0, {0}
 c0002c8:	7e00f120 	mvfvcsp	f7, f0
 c0002cc:	00000c12 	andeq	r0, r0, r2, lsl ip
 c0002d0:	00000c1e 	andeq	r0, r0, lr, lsl ip
 c0002d4:	7f008820 	svcvc	0x00008820
 c0002d8:	00001111 	andeq	r1, r0, r1, lsl r1

0c0002dc <srom_cs0_init>:
 c0002dc:	e3a03207 	mov	r3, #1879048192	; 0x70000000
 c0002e0:	e5932000 	ldr	r2, [r3]
 c0002e4:	e3c2200f 	bic	r2, r2, #15
 c0002e8:	e3822001 	orr	r2, r2, #1
 c0002ec:	e5832000 	str	r2, [r3]
 c0002f0:	e3a0280f 	mov	r2, #983040	; 0xf0000
 c0002f4:	e5832004 	str	r2, [r3, #4]
 c0002f8:	e12fff1e 	bx	lr

0c0002fc <dram_init>:
 c0002fc:	e92d00f0 	push	{r4, r5, r6, r7}
 c000300:	e59f30c4 	ldr	r3, [pc, #196]	; c0003cc <dram_init+0xd0>
 c000304:	e59f70c4 	ldr	r7, [pc, #196]	; c0003d0 <dram_init+0xd4>
 c000308:	e3a02004 	mov	r2, #4
 c00030c:	e5832004 	str	r2, [r3, #4]
 c000310:	e3a01002 	mov	r1, #2
 c000314:	e5837010 	str	r7, [r3, #16]
 c000318:	e3a06006 	mov	r6, #6
 c00031c:	e3a07001 	mov	r7, #1
 c000320:	e5836014 	str	r6, [r3, #20]
 c000324:	e5837018 	str	r7, [r3, #24]
 c000328:	e583101c 	str	r1, [r3, #28]
 c00032c:	e5836020 	str	r6, [r3, #32]
 c000330:	e3a0600a 	mov	r6, #10
 c000334:	e5836024 	str	r6, [r3, #36]	; 0x24
 c000338:	e3a0500c 	mov	r5, #12
 c00033c:	e3a0604b 	mov	r6, #75	; 0x4b
 c000340:	e5835028 	str	r5, [r3, #40]	; 0x28
 c000344:	e583602c 	str	r6, [r3, #44]	; 0x2c
 c000348:	e5835030 	str	r5, [r3, #48]	; 0x30
 c00034c:	e5831034 	str	r1, [r3, #52]	; 0x34
 c000350:	e5831038 	str	r1, [r3, #56]	; 0x38
 c000354:	e583103c 	str	r1, [r3, #60]	; 0x3c
 c000358:	e5831040 	str	r1, [r3, #64]	; 0x40
 c00035c:	e59f1070 	ldr	r1, [pc, #112]	; c0003d4 <dram_init+0xd8>
 c000360:	e3a04010 	mov	r4, #16
 c000364:	e5834044 	str	r4, [r3, #68]	; 0x44
 c000368:	e5834048 	str	r4, [r3, #72]	; 0x48
 c00036c:	e583100c 	str	r1, [r3, #12]
 c000370:	e59f1060 	ldr	r1, [pc, #96]	; c0003d8 <dram_init+0xdc>
 c000374:	e3a00000 	mov	r0, #0
 c000378:	e583104c 	str	r1, [r3, #76]	; 0x4c
 c00037c:	e59f1058 	ldr	r1, [pc, #88]	; c0003dc <dram_init+0xe0>
 c000380:	e3a0c701 	mov	ip, #262144	; 0x40000
 c000384:	e5831200 	str	r1, [r3, #512]	; 0x200
 c000388:	e3a01703 	mov	r1, #786432	; 0xc0000
 c00038c:	e5831008 	str	r1, [r3, #8]
 c000390:	e59f1048 	ldr	r1, [pc, #72]	; c0003e0 <dram_init+0xe4>
 c000394:	e5830008 	str	r0, [r3, #8]
 c000398:	e583c008 	str	ip, [r3, #8]
 c00039c:	e583c008 	str	ip, [r3, #8]
 c0003a0:	e5831008 	str	r1, [r3, #8]
 c0003a4:	e3a0180a 	mov	r1, #655360	; 0xa0000
 c0003a8:	e5831008 	str	r1, [r3, #8]
 c0003ac:	e1a02003 	mov	r2, r3
 c0003b0:	e5830004 	str	r0, [r3, #4]
 c0003b4:	e5923000 	ldr	r3, [r2]
 c0003b8:	e2033003 	and	r3, r3, #3
 c0003bc:	e3530001 	cmp	r3, #1
 c0003c0:	1afffffb 	bne	c0003b4 <dram_init+0xb8>
 c0003c4:	e8bd00f0 	pop	{r4, r5, r6, r7}
 c0003c8:	e12fff1e 	bx	lr
 c0003cc:	7e001000 	cdpvc	0, 0, cr1, cr0, cr0, {0}
 c0003d0:	0000040e 	andeq	r0, r0, lr, lsl #8
 c0003d4:	00010012 	andeq	r0, r1, r2, lsl r0
 c0003d8:	00000b41 	andeq	r0, r0, r1, asr #22
 c0003dc:	000150f8 	strdeq	r5, [r1], -r8
 c0003e0:	00080032 	andeq	r0, r8, r2, lsr r0

0c0003e4 <nand_select>:
 c0003e4:	e59f300c 	ldr	r3, [pc, #12]	; c0003f8 <nand_select+0x14>
 c0003e8:	e5932004 	ldr	r2, [r3, #4]
 c0003ec:	e3c22002 	bic	r2, r2, #2
 c0003f0:	e5832004 	str	r2, [r3, #4]
 c0003f4:	e12fff1e 	bx	lr
 c0003f8:	70200000 	eorvc	r0, r0, r0

0c0003fc <nand_deselect>:
 c0003fc:	e59f300c 	ldr	r3, [pc, #12]	; c000410 <nand_deselect+0x14>
 c000400:	e5932004 	ldr	r2, [r3, #4]
 c000404:	e3822002 	orr	r2, r2, #2
 c000408:	e5832004 	str	r2, [r3, #4]
 c00040c:	e12fff1e 	bx	lr
 c000410:	70200000 	eorvc	r0, r0, r0

0c000414 <nand_cmd>:
 c000414:	e59f3004 	ldr	r3, [pc, #4]	; c000420 <nand_cmd+0xc>
 c000418:	e5830008 	str	r0, [r3, #8]
 c00041c:	e12fff1e 	bx	lr
 c000420:	70200000 	eorvc	r0, r0, r0

0c000424 <nand_addr>:
 c000424:	e59f303c 	ldr	r3, [pc, #60]	; c000468 <nand_addr+0x44>
 c000428:	e1a015a0 	lsr	r1, r0, #11
 c00042c:	e1a0ca80 	lsl	ip, r0, #21
 c000430:	e1a029a0 	lsr	r2, r0, #19
 c000434:	e52d4004 	push	{r4}		; (str r4, [sp, #-4]!)
 c000438:	e1a0ceac 	lsr	ip, ip, #29
 c00043c:	e6ef4070 	uxtb	r4, r0
 c000440:	e6ef1071 	uxtb	r1, r1
 c000444:	e6ef2072 	uxtb	r2, r2
 c000448:	e1a00da0 	lsr	r0, r0, #27
 c00044c:	e583400c 	str	r4, [r3, #12]
 c000450:	e583c00c 	str	ip, [r3, #12]
 c000454:	e583100c 	str	r1, [r3, #12]
 c000458:	e583200c 	str	r2, [r3, #12]
 c00045c:	e583000c 	str	r0, [r3, #12]
 c000460:	e8bd0010 	ldmfd	sp!, {r4}
 c000464:	e12fff1e 	bx	lr
 c000468:	70200000 	eorvc	r0, r0, r0

0c00046c <nand_ready>:
 c00046c:	e59f200c 	ldr	r2, [pc, #12]	; c000480 <nand_ready+0x14>
 c000470:	e5923028 	ldr	r3, [r2, #40]	; 0x28
 c000474:	e3130001 	tst	r3, #1
 c000478:	0afffffc 	beq	c000470 <nand_ready+0x4>
 c00047c:	e12fff1e 	bx	lr
 c000480:	70200000 	eorvc	r0, r0, r0

0c000484 <nand_reset>:
 c000484:	e59f3034 	ldr	r3, [pc, #52]	; c0004c0 <nand_reset+0x3c>
 c000488:	e5932004 	ldr	r2, [r3, #4]
 c00048c:	e1a01003 	mov	r1, r3
 c000490:	e3c22002 	bic	r2, r2, #2
 c000494:	e5832004 	str	r2, [r3, #4]
 c000498:	e3a020ff 	mov	r2, #255	; 0xff
 c00049c:	e5832008 	str	r2, [r3, #8]
 c0004a0:	e5913028 	ldr	r3, [r1, #40]	; 0x28
 c0004a4:	e59f2014 	ldr	r2, [pc, #20]	; c0004c0 <nand_reset+0x3c>
 c0004a8:	e3130001 	tst	r3, #1
 c0004ac:	0afffffb 	beq	c0004a0 <nand_reset+0x1c>
 c0004b0:	e5923004 	ldr	r3, [r2, #4]
 c0004b4:	e3833002 	orr	r3, r3, #2
 c0004b8:	e5823004 	str	r3, [r2, #4]
 c0004bc:	e12fff1e 	bx	lr
 c0004c0:	70200000 	eorvc	r0, r0, r0

0c0004c4 <nand_read_status>:
 c0004c4:	e59f3020 	ldr	r3, [pc, #32]	; c0004ec <nand_read_status+0x28>
 c0004c8:	e3a02070 	mov	r2, #112	; 0x70
 c0004cc:	e5832008 	str	r2, [r3, #8]
 c0004d0:	e5d33010 	ldrb	r3, [r3, #16]
 c0004d4:	e3130001 	tst	r3, #1
 c0004d8:	1a000001 	bne	c0004e4 <nand_read_status+0x20>
 c0004dc:	e59f000c 	ldr	r0, [pc, #12]	; c0004f0 <nand_read_status+0x2c>
 c0004e0:	ea000105 	b	c0008fc <printf_str>
 c0004e4:	e59f0008 	ldr	r0, [pc, #8]	; c0004f4 <nand_read_status+0x30>
 c0004e8:	ea000103 	b	c0008fc <printf_str>
 c0004ec:	70200000 	eorvc	r0, r0, r0
 c0004f0:	0c000b80 	stceq	11, cr0, [r0], {128}	; 0x80
 c0004f4:	0c000b70 	stceq	11, cr0, [r0], {112}	; 0x70

0c0004f8 <nand_init>:
 c0004f8:	e59f20cc 	ldr	r2, [pc, #204]	; c0005cc <nand_init+0xd4>
 c0004fc:	e52d4004 	push	{r4}		; (str r4, [sp, #-4]!)
 c000500:	e5921140 	ldr	r1, [r2, #320]	; 0x140
 c000504:	e59fc0c4 	ldr	ip, [pc, #196]	; c0005d0 <nand_init+0xd8>
 c000508:	e3c1100f 	bic	r1, r1, #15
 c00050c:	e381100a 	orr	r1, r1, #10
 c000510:	e5821140 	str	r1, [r2, #320]	; 0x140
 c000514:	e5921148 	ldr	r1, [r2, #328]	; 0x148
 c000518:	e59f30b4 	ldr	r3, [pc, #180]	; c0005d4 <nand_init+0xdc>
 c00051c:	e3c1100f 	bic	r1, r1, #15
 c000520:	e5821148 	str	r1, [r2, #328]	; 0x148
 c000524:	e5921160 	ldr	r1, [r2, #352]	; 0x160
 c000528:	e59f00a8 	ldr	r0, [pc, #168]	; c0005d8 <nand_init+0xe0>
 c00052c:	e3c11cff 	bic	r1, r1, #65280	; 0xff00
 c000530:	e3c110f0 	bic	r1, r1, #240	; 0xf0
 c000534:	e3811caa 	orr	r1, r1, #43520	; 0xaa00
 c000538:	e38110a0 	orr	r1, r1, #160	; 0xa0
 c00053c:	e5821160 	str	r1, [r2, #352]	; 0x160
 c000540:	e5924168 	ldr	r4, [r2, #360]	; 0x168
 c000544:	e1a01003 	mov	r1, r3
 c000548:	e3c44cff 	bic	r4, r4, #65280	; 0xff00
 c00054c:	e3c440f0 	bic	r4, r4, #240	; 0xf0
 c000550:	e5824168 	str	r4, [r2, #360]	; 0x168
 c000554:	e59c2120 	ldr	r2, [ip, #288]	; 0x120
 c000558:	e3c22002 	bic	r2, r2, #2
 c00055c:	e58c2120 	str	r2, [ip, #288]	; 0x120
 c000560:	e5932000 	ldr	r2, [r3]
 c000564:	e0020000 	and	r0, r2, r0
 c000568:	e5830000 	str	r0, [r3]
 c00056c:	e5932000 	ldr	r2, [r3]
 c000570:	e3822c21 	orr	r2, r2, #8448	; 0x2100
 c000574:	e3822010 	orr	r2, r2, #16
 c000578:	e5832000 	str	r2, [r3]
 c00057c:	e5932004 	ldr	r2, [r3, #4]
 c000580:	e3822001 	orr	r2, r2, #1
 c000584:	e5832004 	str	r2, [r3, #4]
 c000588:	e5932004 	ldr	r2, [r3, #4]
 c00058c:	e3c22801 	bic	r2, r2, #65536	; 0x10000
 c000590:	e5832004 	str	r2, [r3, #4]
 c000594:	e5932004 	ldr	r2, [r3, #4]
 c000598:	e3c22002 	bic	r2, r2, #2
 c00059c:	e5832004 	str	r2, [r3, #4]
 c0005a0:	e3a020ff 	mov	r2, #255	; 0xff
 c0005a4:	e5832008 	str	r2, [r3, #8]
 c0005a8:	e5913028 	ldr	r3, [r1, #40]	; 0x28
 c0005ac:	e59f2020 	ldr	r2, [pc, #32]	; c0005d4 <nand_init+0xdc>
 c0005b0:	e3130001 	tst	r3, #1
 c0005b4:	0afffffb 	beq	c0005a8 <nand_init+0xb0>
 c0005b8:	e5923004 	ldr	r3, [r2, #4]
 c0005bc:	e3833002 	orr	r3, r3, #2
 c0005c0:	e5823004 	str	r3, [r2, #4]
 c0005c4:	e8bd0010 	ldmfd	sp!, {r4}
 c0005c8:	e12fff1e 	bx	lr
 c0005cc:	7f008000 	svcvc	0x00008000
 c0005d0:	7e00f000 	cdpvc	0, 0, cr15, cr0, cr0, {0}
 c0005d4:	70200000 	eorvc	r0, r0, r0
 c0005d8:	bfff888f 	svclt	0x00ff888f

0c0005dc <nand_read>:
 c0005dc:	e92d45f8 	push	{r3, r4, r5, r6, r7, r8, sl, lr}
 c0005e0:	e59f508c 	ldr	r5, [pc, #140]	; c000674 <nand_read+0x98>
 c0005e4:	e3520000 	cmp	r2, #0
 c0005e8:	e5953004 	ldr	r3, [r5, #4]
 c0005ec:	e1a04001 	mov	r4, r1
 c0005f0:	e3c33002 	bic	r3, r3, #2
 c0005f4:	e5853004 	str	r3, [r5, #4]
 c0005f8:	0a000017 	beq	c00065c <nand_read+0x80>
 c0005fc:	e1a0a000 	mov	sl, r0
 c000600:	e1a08002 	mov	r8, r2
 c000604:	e3a07000 	mov	r7, #0
 c000608:	e3a06030 	mov	r6, #48	; 0x30
 c00060c:	e1a0000a 	mov	r0, sl
 c000610:	e5857008 	str	r7, [r5, #8]
 c000614:	ebffff82 	bl	c000424 <nand_addr>
 c000618:	e5856008 	str	r6, [r5, #8]
 c00061c:	e5953028 	ldr	r3, [r5, #40]	; 0x28
 c000620:	e3130001 	tst	r3, #1
 c000624:	0afffffc 	beq	c00061c <nand_read+0x40>
 c000628:	e3580b02 	cmp	r8, #2048	; 0x800
 c00062c:	31a01008 	movcc	r1, r8
 c000630:	23a01b02 	movcs	r1, #2048	; 0x800
 c000634:	e3510000 	cmp	r1, #0
 c000638:	0a000004 	beq	c000650 <nand_read+0x74>
 c00063c:	e0842001 	add	r2, r4, r1
 c000640:	e5d53010 	ldrb	r3, [r5, #16]
 c000644:	e4c43001 	strb	r3, [r4], #1
 c000648:	e1540002 	cmp	r4, r2
 c00064c:	1afffffb 	bne	c000640 <nand_read+0x64>
 c000650:	e0588001 	subs	r8, r8, r1
 c000654:	e08aa001 	add	sl, sl, r1
 c000658:	1affffeb 	bne	c00060c <nand_read+0x30>
 c00065c:	e59f3010 	ldr	r3, [pc, #16]	; c000674 <nand_read+0x98>
 c000660:	e3a00000 	mov	r0, #0
 c000664:	e5932004 	ldr	r2, [r3, #4]
 c000668:	e3822002 	orr	r2, r2, #2
 c00066c:	e5832004 	str	r2, [r3, #4]
 c000670:	e8bd85f8 	pop	{r3, r4, r5, r6, r7, r8, sl, pc}
 c000674:	70200000 	eorvc	r0, r0, r0

0c000678 <nand_erase_block>:
 c000678:	e12fff1e 	bx	lr

0c00067c <nand_erase>:
 c00067c:	e59f3064 	ldr	r3, [pc, #100]	; c0006e8 <nand_erase+0x6c>
 c000680:	e1a005a0 	lsr	r0, r0, #11
 c000684:	e5932004 	ldr	r2, [r3, #4]
 c000688:	e1a01440 	asr	r1, r0, #8
 c00068c:	e92d4010 	push	{r4, lr}
 c000690:	e3c22002 	bic	r2, r2, #2
 c000694:	e6efc070 	uxtb	ip, r0
 c000698:	e6ef1071 	uxtb	r1, r1
 c00069c:	e3a0e060 	mov	lr, #96	; 0x60
 c0006a0:	e5832004 	str	r2, [r3, #4]
 c0006a4:	e1a00840 	asr	r0, r0, #16
 c0006a8:	e583e008 	str	lr, [r3, #8]
 c0006ac:	e583c00c 	str	ip, [r3, #12]
 c0006b0:	e583100c 	str	r1, [r3, #12]
 c0006b4:	e3a010d0 	mov	r1, #208	; 0xd0
 c0006b8:	e583000c 	str	r0, [r3, #12]
 c0006bc:	e1a02003 	mov	r2, r3
 c0006c0:	e5831008 	str	r1, [r3, #8]
 c0006c4:	e5923028 	ldr	r3, [r2, #40]	; 0x28
 c0006c8:	e59f4018 	ldr	r4, [pc, #24]	; c0006e8 <nand_erase+0x6c>
 c0006cc:	e3130001 	tst	r3, #1
 c0006d0:	0afffffb 	beq	c0006c4 <nand_erase+0x48>
 c0006d4:	ebffff7a 	bl	c0004c4 <nand_read_status>
 c0006d8:	e5943004 	ldr	r3, [r4, #4]
 c0006dc:	e3833002 	orr	r3, r3, #2
 c0006e0:	e5843004 	str	r3, [r4, #4]
 c0006e4:	e8bd8010 	pop	{r4, pc}
 c0006e8:	70200000 	eorvc	r0, r0, r0

0c0006ec <nand_write>:
 c0006ec:	e92d4ff8 	push	{r3, r4, r5, r6, r7, r8, r9, sl, fp, lr}
 c0006f0:	e59f40b8 	ldr	r4, [pc, #184]	; c0007b0 <nand_write+0xc4>
 c0006f4:	e1a09a80 	lsl	r9, r0, #21
 c0006f8:	e5943004 	ldr	r3, [r4, #4]
 c0006fc:	e2525000 	subs	r5, r2, #0
 c000700:	e3c33002 	bic	r3, r3, #2
 c000704:	e1a07001 	mov	r7, r1
 c000708:	e1a09aa9 	lsr	r9, r9, #21
 c00070c:	e5843004 	str	r3, [r4, #4]
 c000710:	0a000021 	beq	c00079c <nand_write+0xb0>
 c000714:	e59f6098 	ldr	r6, [pc, #152]	; c0007b4 <nand_write+0xc8>
 c000718:	e1a0a000 	mov	sl, r0
 c00071c:	e3a0b000 	mov	fp, #0
 c000720:	e3a08080 	mov	r8, #128	; 0x80
 c000724:	e1a0000a 	mov	r0, sl
 c000728:	e5848008 	str	r8, [r4, #8]
 c00072c:	ebffff3c 	bl	c000424 <nand_addr>
 c000730:	e155000b 	cmp	r5, fp
 c000734:	9a00000f 	bls	c000778 <nand_write+0x8c>
 c000738:	e1a0300b 	mov	r3, fp
 c00073c:	e06b200a 	rsb	r2, fp, sl
 c000740:	e06b9009 	rsb	r9, fp, r9
 c000744:	e7d7c003 	ldrb	ip, [r7, r3]
 c000748:	e2833001 	add	r3, r3, #1
 c00074c:	e089e003 	add	lr, r9, r3
 c000750:	e15e0006 	cmp	lr, r6
 c000754:	c3a0e000 	movgt	lr, #0
 c000758:	d3a0e001 	movle	lr, #1
 c00075c:	e1550003 	cmp	r5, r3
 c000760:	93a0e000 	movls	lr, #0
 c000764:	e35e0000 	cmp	lr, #0
 c000768:	e5c4c010 	strb	ip, [r4, #16]
 c00076c:	e082a003 	add	sl, r2, r3
 c000770:	1afffff3 	bne	c000744 <nand_write+0x58>
 c000774:	e1a0b003 	mov	fp, r3
 c000778:	e3a03010 	mov	r3, #16
 c00077c:	e5843008 	str	r3, [r4, #8]
 c000780:	e5943028 	ldr	r3, [r4, #40]	; 0x28
 c000784:	e3130001 	tst	r3, #1
 c000788:	0afffffc 	beq	c000780 <nand_write+0x94>
 c00078c:	ebffff4c 	bl	c0004c4 <nand_read_status>
 c000790:	e155000b 	cmp	r5, fp
 c000794:	e3a09000 	mov	r9, #0
 c000798:	8affffe1 	bhi	c000724 <nand_write+0x38>
 c00079c:	e59f300c 	ldr	r3, [pc, #12]	; c0007b0 <nand_write+0xc4>
 c0007a0:	e5932004 	ldr	r2, [r3, #4]
 c0007a4:	e3822002 	orr	r2, r2, #2
 c0007a8:	e5832004 	str	r2, [r3, #4]
 c0007ac:	e8bd8ff8 	pop	{r3, r4, r5, r6, r7, r8, r9, sl, fp, pc}
 c0007b0:	70200000 	eorvc	r0, r0, r0
 c0007b4:	000007ff 	strdeq	r0, [r0], -pc	; <UNPREDICTABLE>

0c0007b8 <copy2ddr>:
 c0007b8:	e92d4070 	push	{r4, r5, r6, lr}
 c0007bc:	e1a05000 	mov	r5, r0
 c0007c0:	e3a04000 	mov	r4, #0
 c0007c4:	e3550b02 	cmp	r5, #2048	; 0x800
 c0007c8:	31a06005 	movcc	r6, r5
 c0007cc:	23a06b02 	movcs	r6, #2048	; 0x800
 c0007d0:	e1a00004 	mov	r0, r4
 c0007d4:	e2841205 	add	r1, r4, #1342177280	; 0x50000000
 c0007d8:	e1a02006 	mov	r2, r6
 c0007dc:	ebffff7e 	bl	c0005dc <nand_read>
 c0007e0:	e0555006 	subs	r5, r5, r6
 c0007e4:	e2844b02 	add	r4, r4, #2048	; 0x800
 c0007e8:	08bd8070 	popeq	{r4, r5, r6, pc}
 c0007ec:	e3540a02 	cmp	r4, #8192	; 0x2000
 c0007f0:	1afffff3 	bne	c0007c4 <copy2ddr+0xc>
 c0007f4:	e59f100c 	ldr	r1, [pc, #12]	; c000808 <copy2ddr+0x50>
 c0007f8:	e1a00004 	mov	r0, r4
 c0007fc:	e1a02005 	mov	r2, r5
 c000800:	e8bd4070 	pop	{r4, r5, r6, lr}
 c000804:	eaffff74 	b	c0005dc <nand_read>
 c000808:	50000800 	andpl	r0, r0, r0, lsl #16

0c00080c <store2nand>:
 c00080c:	e92d40f8 	push	{r3, r4, r5, r6, r7, lr}
 c000810:	e1a07000 	mov	r7, r0
 c000814:	e1a05001 	mov	r5, r1
 c000818:	e3a04000 	mov	r4, #0
 c00081c:	e3550b02 	cmp	r5, #2048	; 0x800
 c000820:	31a06005 	movcc	r6, r5
 c000824:	23a06b02 	movcs	r6, #2048	; 0x800
 c000828:	e1a00004 	mov	r0, r4
 c00082c:	e0841007 	add	r1, r4, r7
 c000830:	e1a02006 	mov	r2, r6
 c000834:	ebffffac 	bl	c0006ec <nand_write>
 c000838:	e0555006 	subs	r5, r5, r6
 c00083c:	e2844b02 	add	r4, r4, #2048	; 0x800
 c000840:	08bd80f8 	popeq	{r3, r4, r5, r6, r7, pc}
 c000844:	e3540a02 	cmp	r4, #8192	; 0x2000
 c000848:	1afffff3 	bne	c00081c <store2nand+0x10>
 c00084c:	e1a00004 	mov	r0, r4
 c000850:	e2871a02 	add	r1, r7, #8192	; 0x2000
 c000854:	e1a02005 	mov	r2, r5
 c000858:	e8bd40f8 	pop	{r3, r4, r5, r6, r7, lr}
 c00085c:	eaffffa2 	b	c0006ec <nand_write>

0c000860 <clear_bss>:
 c000860:	e2811003 	add	r1, r1, #3
 c000864:	e1a03121 	lsr	r3, r1, #2
 c000868:	e3530000 	cmp	r3, #0
 c00086c:	e2433001 	sub	r3, r3, #1
 c000870:	012fff1e 	bxeq	lr
 c000874:	e3a02000 	mov	r2, #0
 c000878:	e2433001 	sub	r3, r3, #1
 c00087c:	e3730001 	cmn	r3, #1
 c000880:	e4802004 	str	r2, [r0], #4
 c000884:	1afffffb 	bne	c000878 <clear_bss+0x18>
 c000888:	e12fff1e 	bx	lr

0c00088c <scan_byte>:
 c00088c:	e59f3014 	ldr	r3, [pc, #20]	; c0008a8 <scan_byte+0x1c>
 c000890:	e5932000 	ldr	r2, [r3]
 c000894:	e5923018 	ldr	r3, [r2, #24]
 c000898:	e313003f 	tst	r3, #63	; 0x3f
 c00089c:	0afffffc 	beq	c000894 <scan_byte+0x8>
 c0008a0:	e5d20024 	ldrb	r0, [r2, #36]	; 0x24
 c0008a4:	e12fff1e 	bx	lr
 c0008a8:	0c000c20 	stceq	12, cr0, [r0], {32}

0c0008ac <read_byte>:
 c0008ac:	e59f301c 	ldr	r3, [pc, #28]	; c0008d0 <read_byte+0x24>
 c0008b0:	e5932000 	ldr	r2, [r3]
 c0008b4:	e5923018 	ldr	r3, [r2, #24]
 c0008b8:	e213303f 	ands	r3, r3, #63	; 0x3f
 c0008bc:	15d22024 	ldrbne	r2, [r2, #36]	; 0x24
 c0008c0:	13a03001 	movne	r3, #1
 c0008c4:	15c02000 	strbne	r2, [r0]
 c0008c8:	e1a00003 	mov	r0, r3
 c0008cc:	e12fff1e 	bx	lr
 c0008d0:	0c000c20 	stceq	12, cr0, [r0], {32}

0c0008d4 <printf_byte>:
 c0008d4:	e59f301c 	ldr	r3, [pc, #28]	; c0008f8 <printf_byte+0x24>
 c0008d8:	e5932000 	ldr	r2, [r3]
 c0008dc:	e5923018 	ldr	r3, [r2, #24]
 c0008e0:	e1a03423 	lsr	r3, r3, #8
 c0008e4:	e203303f 	and	r3, r3, #63	; 0x3f
 c0008e8:	e353003f 	cmp	r3, #63	; 0x3f
 c0008ec:	0afffffa 	beq	c0008dc <printf_byte+0x8>
 c0008f0:	e5c20020 	strb	r0, [r2, #32]
 c0008f4:	e12fff1e 	bx	lr
 c0008f8:	0c000c20 	stceq	12, cr0, [r0], {32}

0c0008fc <printf_str>:
 c0008fc:	e5d01000 	ldrb	r1, [r0]
 c000900:	e3510000 	cmp	r1, #0
 c000904:	012fff1e 	bxeq	lr
 c000908:	e59f3028 	ldr	r3, [pc, #40]	; c000938 <printf_str+0x3c>
 c00090c:	e5932000 	ldr	r2, [r3]
 c000910:	e5923018 	ldr	r3, [r2, #24]
 c000914:	e1a03423 	lsr	r3, r3, #8
 c000918:	e203303f 	and	r3, r3, #63	; 0x3f
 c00091c:	e353003f 	cmp	r3, #63	; 0x3f
 c000920:	0afffffa 	beq	c000910 <printf_str+0x14>
 c000924:	e5c21020 	strb	r1, [r2, #32]
 c000928:	e5f01001 	ldrb	r1, [r0, #1]!
 c00092c:	e3510000 	cmp	r1, #0
 c000930:	1afffff6 	bne	c000910 <printf_str+0x14>
 c000934:	e12fff1e 	bx	lr
 c000938:	0c000c20 	stceq	12, cr0, [r0], {32}

0c00093c <module_init_uart0>:
 c00093c:	e59f30a8 	ldr	r3, [pc, #168]	; c0009ec <module_init_uart0+0xb0>
 c000940:	e59f10a8 	ldr	r1, [pc, #168]	; c0009f0 <module_init_uart0+0xb4>
 c000944:	e5930000 	ldr	r0, [r3]
 c000948:	e59f20a4 	ldr	r2, [pc, #164]	; c0009f4 <module_init_uart0+0xb8>
 c00094c:	e3c000ff 	bic	r0, r0, #255	; 0xff
 c000950:	e3800022 	orr	r0, r0, #34	; 0x22
 c000954:	e5830000 	str	r0, [r3]
 c000958:	e5930008 	ldr	r0, [r3, #8]
 c00095c:	e3c0000f 	bic	r0, r0, #15
 c000960:	e5830008 	str	r0, [r3, #8]
 c000964:	e593000c 	ldr	r0, [r3, #12]
 c000968:	e380000f 	orr	r0, r0, #15
 c00096c:	e583000c 	str	r0, [r3, #12]
 c000970:	e5930010 	ldr	r0, [r3, #16]
 c000974:	e3c0000f 	bic	r0, r0, #15
 c000978:	e5830010 	str	r0, [r3, #16]
 c00097c:	e591001c 	ldr	r0, [r1, #28]
 c000980:	e3800a02 	orr	r0, r0, #8192	; 0x2000
 c000984:	e581001c 	str	r0, [r1, #28]
 c000988:	e5910028 	ldr	r0, [r1, #40]	; 0x28
 c00098c:	e3c0080f 	bic	r0, r0, #983040	; 0xf0000
 c000990:	e3800801 	orr	r0, r0, #65536	; 0x10000
 c000994:	e5810028 	str	r0, [r1, #40]	; 0x28
 c000998:	e3a00003 	mov	r0, #3
 c00099c:	e5820000 	str	r0, [r2]
 c0009a0:	e59f0050 	ldr	r0, [pc, #80]	; c0009f8 <module_init_uart0+0xbc>
 c0009a4:	e5820004 	str	r0, [r2, #4]
 c0009a8:	e3a00057 	mov	r0, #87	; 0x57
 c0009ac:	e5820008 	str	r0, [r2, #8]
 c0009b0:	e3a00000 	mov	r0, #0
 c0009b4:	e582000c 	str	r0, [r2, #12]
 c0009b8:	e3a00023 	mov	r0, #35	; 0x23
 c0009bc:	e5820028 	str	r0, [r2, #40]	; 0x28
 c0009c0:	e3a00080 	mov	r0, #128	; 0x80
 c0009c4:	e582002c 	str	r0, [r2, #44]	; 0x2c
 c0009c8:	e59f002c 	ldr	r0, [pc, #44]	; c0009fc <module_init_uart0+0xc0>
 c0009cc:	e5801000 	str	r1, [r0]
 c0009d0:	e59f1028 	ldr	r1, [pc, #40]	; c000a00 <module_init_uart0+0xc4>
 c0009d4:	e3a00001 	mov	r0, #1
 c0009d8:	e5812000 	str	r2, [r1]
 c0009dc:	e59f1020 	ldr	r1, [pc, #32]	; c000a04 <module_init_uart0+0xc8>
 c0009e0:	e5813000 	str	r3, [r1]
 c0009e4:	e5923014 	ldr	r3, [r2, #20]
 c0009e8:	e12fff1e 	bx	lr
 c0009ec:	7f008000 	svcvc	0x00008000
 c0009f0:	7e00f000 	cdpvc	0, 0, cr15, cr0, cr0, {0}
 c0009f4:	7f005000 	svcvc	0x00005000
 c0009f8:	00000805 	andeq	r0, r0, r5, lsl #16
 c0009fc:	0c000c18 	stceq	12, cr0, [r0], {24}
 c000a00:	0c000c20 	stceq	12, cr0, [r0], {32}
 c000a04:	0c000c24 	stceq	12, cr0, [r0], {36}	; 0x24

0c000a08 <get_packet>:
 c000a08:	e92d4030 	push	{r4, r5, lr}
 c000a0c:	e59f4084 	ldr	r4, [pc, #132]	; c000a98 <get_packet+0x90>
 c000a10:	e24dd00c 	sub	sp, sp, #12
 c000a14:	e1a05000 	mov	r5, r0
 c000a18:	ea000001 	b	c000a24 <get_packet+0x1c>
 c000a1c:	e2544001 	subs	r4, r4, #1
 c000a20:	0a00000f 	beq	c000a64 <get_packet+0x5c>
 c000a24:	e28d0007 	add	r0, sp, #7
 c000a28:	ebffff9f 	bl	c0008ac <read_byte>
 c000a2c:	e3500000 	cmp	r0, #0
 c000a30:	0afffff9 	beq	c000a1c <get_packet+0x14>
 c000a34:	e5dd0007 	ldrb	r0, [sp, #7]
 c000a38:	e3500004 	cmp	r0, #4
 c000a3c:	0a000004 	beq	c000a54 <get_packet+0x4c>
 c000a40:	9a000005 	bls	c000a5c <get_packet+0x54>
 c000a44:	e3500018 	cmp	r0, #24
 c000a48:	0a000001 	beq	c000a54 <get_packet+0x4c>
 c000a4c:	e3500073 	cmp	r0, #115	; 0x73
 c000a50:	1a000003 	bne	c000a64 <get_packet+0x5c>
 c000a54:	e28dd00c 	add	sp, sp, #12
 c000a58:	e8bd8030 	pop	{r4, r5, pc}
 c000a5c:	e3500001 	cmp	r0, #1
 c000a60:	0a000001 	beq	c000a6c <get_packet+0x64>
 c000a64:	e3a000ff 	mov	r0, #255	; 0xff
 c000a68:	eafffff9 	b	c000a54 <get_packet+0x4c>
 c000a6c:	ebffff86 	bl	c00088c <scan_byte>
 c000a70:	ebffff85 	bl	c00088c <scan_byte>
 c000a74:	e3a04000 	mov	r4, #0
 c000a78:	ebffff83 	bl	c00088c <scan_byte>
 c000a7c:	e7c50004 	strb	r0, [r5, r4]
 c000a80:	e2844001 	add	r4, r4, #1
 c000a84:	e3540080 	cmp	r4, #128	; 0x80
 c000a88:	1afffffa 	bne	c000a78 <get_packet+0x70>
 c000a8c:	ebffff7e 	bl	c00088c <scan_byte>
 c000a90:	e3a00001 	mov	r0, #1
 c000a94:	eaffffee 	b	c000a54 <get_packet+0x4c>
 c000a98:	000f4240 	andeq	r4, pc, r0, asr #4

Disassembly of section .text.startup:

0c000a9c <main>:
 c000a9c:	e92d4008 	push	{r3, lr}
 c000aa0:	ebffffa5 	bl	c00093c <module_init_uart0>
 c000aa4:	e59f0098 	ldr	r0, [pc, #152]	; c000b44 <main+0xa8>
 c000aa8:	ebffff93 	bl	c0008fc <printf_str>
 c000aac:	e59f3094 	ldr	r3, [pc, #148]	; c000b48 <main+0xac>
 c000ab0:	e59f1094 	ldr	r1, [pc, #148]	; c000b4c <main+0xb0>
 c000ab4:	e3a02061 	mov	r2, #97	; 0x61
 c000ab8:	e5e32001 	strb	r2, [r3, #1]!
 c000abc:	e1530001 	cmp	r3, r1
 c000ac0:	1afffffc 	bne	c000ab8 <main+0x1c>
 c000ac4:	e59f0084 	ldr	r0, [pc, #132]	; c000b50 <main+0xb4>
 c000ac8:	ebffff8b 	bl	c0008fc <printf_str>
 c000acc:	e3a00000 	mov	r0, #0
 c000ad0:	ebfffee9 	bl	c00067c <nand_erase>
 c000ad4:	e59f0078 	ldr	r0, [pc, #120]	; c000b54 <main+0xb8>
 c000ad8:	ebffff87 	bl	c0008fc <printf_str>
 c000adc:	e59f1074 	ldr	r1, [pc, #116]	; c000b58 <main+0xbc>
 c000ae0:	e3a02b02 	mov	r2, #2048	; 0x800
 c000ae4:	e3a00a02 	mov	r0, #8192	; 0x2000
 c000ae8:	ebfffeff 	bl	c0006ec <nand_write>
 c000aec:	e59f0068 	ldr	r0, [pc, #104]	; c000b5c <main+0xc0>
 c000af0:	ebffff81 	bl	c0008fc <printf_str>
 c000af4:	e3a02b02 	mov	r2, #2048	; 0x800
 c000af8:	e3a01205 	mov	r1, #1342177280	; 0x50000000
 c000afc:	e3a00a02 	mov	r0, #8192	; 0x2000
 c000b00:	ebfffeb5 	bl	c0005dc <nand_read>
 c000b04:	e59f0054 	ldr	r0, [pc, #84]	; c000b60 <main+0xc4>
 c000b08:	ebffff7b 	bl	c0008fc <printf_str>
 c000b0c:	e59f2050 	ldr	r2, [pc, #80]	; c000b64 <main+0xc8>
 c000b10:	e3e0320b 	mvn	r3, #-1342177280	; 0xb0000000
 c000b14:	ea000001 	b	c000b20 <main+0x84>
 c000b18:	e1530002 	cmp	r3, r2
 c000b1c:	0a000005 	beq	c000b38 <main+0x9c>
 c000b20:	e5f31001 	ldrb	r1, [r3, #1]!
 c000b24:	e3510061 	cmp	r1, #97	; 0x61
 c000b28:	0afffffa 	beq	c000b18 <main+0x7c>
 c000b2c:	e59f0034 	ldr	r0, [pc, #52]	; c000b68 <main+0xcc>
 c000b30:	ebffff71 	bl	c0008fc <printf_str>
 c000b34:	eafffffe 	b	c000b34 <main+0x98>
 c000b38:	e59f002c 	ldr	r0, [pc, #44]	; c000b6c <main+0xd0>
 c000b3c:	ebffff6e 	bl	c0008fc <printf_str>
 c000b40:	eafffffb 	b	c000b34 <main+0x98>
 c000b44:	0c000b90 	stceq	11, cr0, [r0], {144}	; 0x90
 c000b48:	57dfffff 			; <UNDEFINED> instruction: 0x57dfffff
 c000b4c:	57e007ff 			; <UNDEFINED> instruction: 0x57e007ff
 c000b50:	0c000ba0 	stceq	11, cr0, [r0], {160}	; 0xa0
 c000b54:	0c000bb0 	stceq	11, cr0, [r0], {176}	; 0xb0
 c000b58:	57e00000 	strbpl	r0, [r0, r0]!
 c000b5c:	0c000bc0 	stceq	11, cr0, [r0], {192}	; 0xc0
 c000b60:	0c000bd0 	stceq	11, cr0, [r0], {208}	; 0xd0
 c000b64:	5000007f 	andpl	r0, r0, pc, ror r0
 c000b68:	0c000be8 	stceq	11, cr0, [r0], {232}	; 0xe8
 c000b6c:	0c000c00 	stceq	12, cr0, [r0], {-0}
